	.file	"cpptraced.cpp"
	.text
.Ltext0:
	.file 0 "/home/maragos/snippets/tracing_example_2" "cpptraced.cpp"
	.local	_ZL6mutex1
	.comm	_ZL6mutex1,40,32
	.local	_ZL6mutex2
	.comm	_ZL6mutex2,40,32
	.local	_ZL6mutex3
	.comm	_ZL6mutex3,40,32
	.local	_ZL8_do_exit
	.comm	_ZL8_do_exit,4,4
	.section	.rodata
.LC0:
	.string	"f3"
.LC1:
	.string	"%s %d\n"
	.text
	.type	_ZL2f3i, @function
_ZL2f3i:
.LFB24:
	.file 1 "cpptraced.cpp"
	.loc 1 33 1
	.cfi_startproc
	.cfi_personality 0x9b,DW.ref.__gxx_personality_v0
	.cfi_lsda 0x1b,.LLSDA24
	endbr64
	pushq	%rbp
	.cfi_def_cfa_offset 16
	.cfi_offset 6, -16
	movq	%rsp, %rbp
	.cfi_def_cfa_register 6
	pushq	%rbx
	subq	$24, %rsp
	.cfi_offset 3, -24
	movl	%edi, -20(%rbp)
	movq	8(%rbp), %rax
	movq	%rax, %rsi
	leaq	_ZL2f3i(%rip), %rax
	movq	%rax, %rdi
.LEHB0:
	call	__cyg_profile_func_enter@PLT
.LEHE0:
	.loc 1 34 11
	movl	-20(%rbp), %eax
	movl	%eax, %edx
	leaq	.LC0(%rip), %rax
	movq	%rax, %rsi
	leaq	.LC1(%rip), %rax
	movq	%rax, %rdi
	movl	$0, %eax
.LEHB1:
	call	printf@PLT
.LEHE1:
	.loc 1 35 12
	movl	$80, %ebx
	movq	8(%rbp), %rax
	movq	%rax, %rsi
	leaq	_ZL2f3i(%rip), %rax
	movq	%rax, %rdi
.LEHB2:
	call	__cyg_profile_func_exit@PLT
.LEHE2:
	movl	%ebx, %eax
	jmp	.L5
.L4:
	endbr64
	movq	%rax, %rbx
	movq	8(%rbp), %rax
	movq	%rax, %rsi
	leaq	_ZL2f3i(%rip), %rax
	movq	%rax, %rdi
	call	__cyg_profile_func_exit@PLT
	movq	%rbx, %rax
	movq	%rax, %rdi
.LEHB3:
	call	_Unwind_Resume@PLT
.LEHE3:
.L5:
	.loc 1 36 1
	movq	-8(%rbp), %rbx
	leave
	.cfi_def_cfa 7, 8
	ret
	.cfi_endproc
.LFE24:
	.globl	__gxx_personality_v0
	.section	.gcc_except_table,"a",@progbits
.LLSDA24:
	.byte	0xff
	.byte	0xff
	.byte	0x1
	.uleb128 .LLSDACSE24-.LLSDACSB24
.LLSDACSB24:
	.uleb128 .LEHB0-.LFB24
	.uleb128 .LEHE0-.LEHB0
	.uleb128 0
	.uleb128 0
	.uleb128 .LEHB1-.LFB24
	.uleb128 .LEHE1-.LEHB1
	.uleb128 .L4-.LFB24
	.uleb128 0
	.uleb128 .LEHB2-.LFB24
	.uleb128 .LEHE2-.LEHB2
	.uleb128 0
	.uleb128 0
	.uleb128 .LEHB3-.LFB24
	.uleb128 .LEHE3-.LEHB3
	.uleb128 0
	.uleb128 0
.LLSDACSE24:
	.text
	.size	_ZL2f3i, .-_ZL2f3i
	.section	.rodata
.LC2:
	.string	"f2"
	.text
	.globl	_Z2f2i
	.type	_Z2f2i, @function
_Z2f2i:
.LFB25:
	.loc 1 40 1
	.cfi_startproc
	.cfi_personality 0x9b,DW.ref.__gxx_personality_v0
	.cfi_lsda 0x1b,.LLSDA25
	endbr64
	pushq	%rbp
	.cfi_def_cfa_offset 16
	.cfi_offset 6, -16
	movq	%rsp, %rbp
	.cfi_def_cfa_register 6
	pushq	%rbx
	subq	$24, %rsp
	.cfi_offset 3, -24
	movl	%edi, -20(%rbp)
	movq	8(%rbp), %rax
	movq	%rax, %rsi
	leaq	_Z2f2i(%rip), %rax
	movq	%rax, %rdi
.LEHB4:
	call	__cyg_profile_func_enter@PLT
.LEHE4:
	.loc 1 41 11
	movl	-20(%rbp), %eax
	movl	%eax, %edx
	leaq	.LC2(%rip), %rax
	movq	%rax, %rsi
	leaq	.LC1(%rip), %rax
	movq	%rax, %rdi
	movl	$0, %eax
.LEHB5:
	call	printf@PLT
	.loc 1 42 7
	movl	-20(%rbp), %eax
	addl	$70, %eax
	movl	%eax, %edi
	call	_ZL2f3i
.LEHE5:
	.loc 1 43 12
	movl	$70, %ebx
	movq	8(%rbp), %rax
	movq	%rax, %rsi
	leaq	_Z2f2i(%rip), %rax
	movq	%rax, %rdi
.LEHB6:
	call	__cyg_profile_func_exit@PLT
.LEHE6:
	movl	%ebx, %eax
	jmp	.L10
.L9:
	endbr64
	movq	%rax, %rbx
	movq	8(%rbp), %rax
	movq	%rax, %rsi
	leaq	_Z2f2i(%rip), %rax
	movq	%rax, %rdi
	call	__cyg_profile_func_exit@PLT
	movq	%rbx, %rax
	movq	%rax, %rdi
.LEHB7:
	call	_Unwind_Resume@PLT
.LEHE7:
.L10:
	.loc 1 44 1
	movq	-8(%rbp), %rbx
	leave
	.cfi_def_cfa 7, 8
	ret
	.cfi_endproc
.LFE25:
	.section	.gcc_except_table
.LLSDA25:
	.byte	0xff
	.byte	0xff
	.byte	0x1
	.uleb128 .LLSDACSE25-.LLSDACSB25
.LLSDACSB25:
	.uleb128 .LEHB4-.LFB25
	.uleb128 .LEHE4-.LEHB4
	.uleb128 0
	.uleb128 0
	.uleb128 .LEHB5-.LFB25
	.uleb128 .LEHE5-.LEHB5
	.uleb128 .L9-.LFB25
	.uleb128 0
	.uleb128 .LEHB6-.LFB25
	.uleb128 .LEHE6-.LEHB6
	.uleb128 0
	.uleb128 0
	.uleb128 .LEHB7-.LFB25
	.uleb128 .LEHE7-.LEHB7
	.uleb128 0
	.uleb128 0
.LLSDACSE25:
	.text
	.size	_Z2f2i, .-_Z2f2i
	.section	.rodata
.LC3:
	.string	"f1"
	.text
	.type	_ZL2f1i, @function
_ZL2f1i:
.LFB26:
	.loc 1 48 1
	.cfi_startproc
	.cfi_personality 0x9b,DW.ref.__gxx_personality_v0
	.cfi_lsda 0x1b,.LLSDA26
	endbr64
	pushq	%rbp
	.cfi_def_cfa_offset 16
	.cfi_offset 6, -16
	movq	%rsp, %rbp
	.cfi_def_cfa_register 6
	pushq	%rbx
	subq	$24, %rsp
	.cfi_offset 3, -24
	movl	%edi, -20(%rbp)
	movq	8(%rbp), %rax
	movq	%rax, %rsi
	leaq	_ZL2f1i(%rip), %rax
	movq	%rax, %rdi
.LEHB8:
	call	__cyg_profile_func_enter@PLT
.LEHE8:
	.loc 1 49 11
	movl	-20(%rbp), %eax
	movl	%eax, %edx
	leaq	.LC3(%rip), %rax
	movq	%rax, %rsi
	leaq	.LC1(%rip), %rax
	movq	%rax, %rdi
	movl	$0, %eax
.LEHB9:
	call	printf@PLT
	.loc 1 50 7
	movl	-20(%rbp), %eax
	addl	$60, %eax
	movl	%eax, %edi
	call	_Z2f2i
.LEHE9:
	.loc 1 51 12
	movl	$60, %ebx
	movq	8(%rbp), %rax
	movq	%rax, %rsi
	leaq	_ZL2f1i(%rip), %rax
	movq	%rax, %rdi
.LEHB10:
	call	__cyg_profile_func_exit@PLT
.LEHE10:
	movl	%ebx, %eax
	jmp	.L15
.L14:
	endbr64
	movq	%rax, %rbx
	movq	8(%rbp), %rax
	movq	%rax, %rsi
	leaq	_ZL2f1i(%rip), %rax
	movq	%rax, %rdi
	call	__cyg_profile_func_exit@PLT
	movq	%rbx, %rax
	movq	%rax, %rdi
.LEHB11:
	call	_Unwind_Resume@PLT
.LEHE11:
.L15:
	.loc 1 52 1
	movq	-8(%rbp), %rbx
	leave
	.cfi_def_cfa 7, 8
	ret
	.cfi_endproc
.LFE26:
	.section	.gcc_except_table
.LLSDA26:
	.byte	0xff
	.byte	0xff
	.byte	0x1
	.uleb128 .LLSDACSE26-.LLSDACSB26
.LLSDACSB26:
	.uleb128 .LEHB8-.LFB26
	.uleb128 .LEHE8-.LEHB8
	.uleb128 0
	.uleb128 0
	.uleb128 .LEHB9-.LFB26
	.uleb128 .LEHE9-.LEHB9
	.uleb128 .L14-.LFB26
	.uleb128 0
	.uleb128 .LEHB10-.LFB26
	.uleb128 .LEHE10-.LEHB10
	.uleb128 0
	.uleb128 0
	.uleb128 .LEHB11-.LFB26
	.uleb128 .LEHE11-.LEHB11
	.uleb128 0
	.uleb128 0
.LLSDACSE26:
	.text
	.size	_ZL2f1i, .-_ZL2f1i
	.section	.rodata
.LC4:
	.string	"B::B()"
	.section	.text._ZN1BC2Ev,"axG",@progbits,_ZN1BC5Ev,comdat
	.align 2
	.weak	_ZN1BC2Ev
	.type	_ZN1BC2Ev, @function
_ZN1BC2Ev:
.LFB28:
	.loc 1 57 5
	.cfi_startproc
	.cfi_personality 0x9b,DW.ref.__gxx_personality_v0
	.cfi_lsda 0x1b,.LLSDA28
	endbr64
	pushq	%rbp
	.cfi_def_cfa_offset 16
	.cfi_offset 6, -16
	movq	%rsp, %rbp
	.cfi_def_cfa_register 6
	pushq	%rbx
	subq	$24, %rsp
	.cfi_offset 3, -24
	movq	%rdi, -24(%rbp)
	movq	8(%rbp), %rax
	movq	%rax, %rsi
	leaq	_ZN1BC2Ev(%rip), %rax
	movq	%rax, %rdi
.LEHB12:
	call	__cyg_profile_func_enter@PLT
.LEHE12:
.LBB2:
	.loc 1 57 9
	leaq	16+_ZTV1B(%rip), %rdx
	movq	-24(%rbp), %rax
	movq	%rdx, (%rax)
	.loc 1 57 16
	leaq	.LC4(%rip), %rax
	movq	%rax, %rdi
.LEHB13:
	call	puts@PLT
.LEHE13:
.LBE2:
	movq	8(%rbp), %rax
	movq	%rax, %rsi
	leaq	_ZN1BC2Ev(%rip), %rax
	movq	%rax, %rdi
.LEHB14:
	call	__cyg_profile_func_exit@PLT
.LEHE14:
	.loc 1 57 29 discriminator 1
	jmp	.L19
.L18:
	endbr64
	movq	%rax, %rbx
	movq	8(%rbp), %rax
	movq	%rax, %rsi
	leaq	_ZN1BC2Ev(%rip), %rax
	movq	%rax, %rdi
	call	__cyg_profile_func_exit@PLT
	movq	%rbx, %rax
	movq	%rax, %rdi
.LEHB15:
	call	_Unwind_Resume@PLT
.LEHE15:
.L19:
	.loc 1 57 29 is_stmt 0
	movq	-8(%rbp), %rbx
	leave
	.cfi_def_cfa 7, 8
	ret
	.cfi_endproc
.LFE28:
	.section	.gcc_except_table
.LLSDA28:
	.byte	0xff
	.byte	0xff
	.byte	0x1
	.uleb128 .LLSDACSE28-.LLSDACSB28
.LLSDACSB28:
	.uleb128 .LEHB12-.LFB28
	.uleb128 .LEHE12-.LEHB12
	.uleb128 0
	.uleb128 0
	.uleb128 .LEHB13-.LFB28
	.uleb128 .LEHE13-.LEHB13
	.uleb128 .L18-.LFB28
	.uleb128 0
	.uleb128 .LEHB14-.LFB28
	.uleb128 .LEHE14-.LEHB14
	.uleb128 0
	.uleb128 0
	.uleb128 .LEHB15-.LFB28
	.uleb128 .LEHE15-.LEHB15
	.uleb128 0
	.uleb128 0
.LLSDACSE28:
	.section	.text._ZN1BC2Ev,"axG",@progbits,_ZN1BC5Ev,comdat
	.size	_ZN1BC2Ev, .-_ZN1BC2Ev
	.weak	_ZN1BC1Ev
	.set	_ZN1BC1Ev,_ZN1BC2Ev
	.section	.rodata
.LC5:
	.string	"B::~B()"
	.section	.text._ZN1BD2Ev,"axG",@progbits,_ZN1BD5Ev,comdat
	.align 2
	.weak	_ZN1BD2Ev
	.type	_ZN1BD2Ev, @function
_ZN1BD2Ev:
.LFB34:
	.loc 1 59 13 is_stmt 1
	.cfi_startproc
	.cfi_personality 0x9b,DW.ref.__gxx_personality_v0
	.cfi_lsda 0x1b,.LLSDA34
	endbr64
	pushq	%rbp
	.cfi_def_cfa_offset 16
	.cfi_offset 6, -16
	movq	%rsp, %rbp
	.cfi_def_cfa_register 6
	subq	$16, %rsp
	movq	%rdi, -8(%rbp)
	movq	8(%rbp), %rax
	movq	%rax, %rsi
	leaq	_ZN1BD2Ev(%rip), %rax
	movq	%rax, %rdi
.LEHB16:
	call	__cyg_profile_func_enter@PLT
.LEHE16:
.LBB3:
	.loc 1 59 18
	leaq	16+_ZTV1B(%rip), %rdx
	movq	-8(%rbp), %rax
	movq	%rdx, (%rax)
	.loc 1 59 25
	leaq	.LC5(%rip), %rax
	movq	%rax, %rdi
	call	puts@PLT
.LBE3:
	movq	8(%rbp), %rax
	movq	%rax, %rsi
	leaq	_ZN1BD2Ev(%rip), %rax
	movq	%rax, %rdi
.LEHB17:
	call	__cyg_profile_func_exit@PLT
.LEHE17:
	.loc 1 59 39
	nop
	leave
	.cfi_def_cfa 7, 8
	ret
	.cfi_endproc
.LFE34:
	.section	.gcc_except_table
.LLSDA34:
	.byte	0xff
	.byte	0xff
	.byte	0x1
	.uleb128 .LLSDACSE34-.LLSDACSB34
.LLSDACSB34:
	.uleb128 .LEHB16-.LFB34
	.uleb128 .LEHE16-.LEHB16
	.uleb128 0
	.uleb128 0
	.uleb128 .LEHB17-.LFB34
	.uleb128 .LEHE17-.LEHB17
	.uleb128 0
	.uleb128 0
.LLSDACSE34:
	.section	.text._ZN1BD2Ev,"axG",@progbits,_ZN1BD5Ev,comdat
	.size	_ZN1BD2Ev, .-_ZN1BD2Ev
	.weak	_ZN1BD1Ev
	.set	_ZN1BD1Ev,_ZN1BD2Ev
	.section	.text._ZN1BD0Ev,"axG",@progbits,_ZN1BD5Ev,comdat
	.align 2
	.weak	_ZN1BD0Ev
	.type	_ZN1BD0Ev, @function
_ZN1BD0Ev:
.LFB36:
	.loc 1 59 13
	.cfi_startproc
	endbr64
	pushq	%rbp
	.cfi_def_cfa_offset 16
	.cfi_offset 6, -16
	movq	%rsp, %rbp
	.cfi_def_cfa_register 6
	subq	$16, %rsp
	movq	%rdi, -8(%rbp)
	movq	8(%rbp), %rax
	movq	%rax, %rsi
	leaq	_ZN1BD0Ev(%rip), %rax
	movq	%rax, %rdi
	call	__cyg_profile_func_enter@PLT
	.loc 1 59 39
	movq	-8(%rbp), %rax
	movq	%rax, %rdi
	call	_ZN1BD1Ev
	movq	-8(%rbp), %rax
	movl	$16, %esi
	movq	%rax, %rdi
	call	_ZdlPvm@PLT
	movq	8(%rbp), %rax
	movq	%rax, %rsi
	leaq	_ZN1BD0Ev(%rip), %rax
	movq	%rax, %rdi
	call	__cyg_profile_func_exit@PLT
	leave
	.cfi_def_cfa 7, 8
	ret
	.cfi_endproc
.LFE36:
	.size	_ZN1BD0Ev, .-_ZN1BD0Ev
	.section	.rodata
.LC6:
	.string	"B::m1()"
	.section	.text._ZN1B2m1Eii,"axG",@progbits,_ZN1B2m1Eii,comdat
	.align 2
	.weak	_ZN1B2m1Eii
	.type	_ZN1B2m1Eii, @function
_ZN1B2m1Eii:
.LFB37:
	.loc 1 61 17
	.cfi_startproc
	.cfi_personality 0x9b,DW.ref.__gxx_personality_v0
	.cfi_lsda 0x1b,.LLSDA37
	endbr64
	pushq	%rbp
	.cfi_def_cfa_offset 16
	.cfi_offset 6, -16
	movq	%rsp, %rbp
	.cfi_def_cfa_register 6
	pushq	%rbx
	subq	$24, %rsp
	.cfi_offset 3, -24
	movq	%rdi, -24(%rbp)
	movl	%esi, -28(%rbp)
	movl	%edx, -32(%rbp)
	movq	8(%rbp), %rax
	movq	%rax, %rsi
	leaq	_ZN1B2m1Eii(%rip), %rax
	movq	%rax, %rdi
.LEHB18:
	call	__cyg_profile_func_enter@PLT
.LEHE18:
	.loc 1 61 41
	leaq	.LC6(%rip), %rax
	movq	%rax, %rdi
.LEHB19:
	call	puts@PLT
	.loc 1 61 58 discriminator 1
	movl	-28(%rbp), %eax
	movl	%eax, %edi
	call	_ZL2f1i
.LEHE19:
	.loc 1 61 70 discriminator 2
	movl	$20, %ebx
	movq	8(%rbp), %rax
	movq	%rax, %rsi
	leaq	_ZN1B2m1Eii(%rip), %rax
	movq	%rax, %rdi
.LEHB20:
	call	__cyg_profile_func_exit@PLT
.LEHE20:
	movl	%ebx, %eax
	jmp	.L26
.L25:
	endbr64
	movq	%rax, %rbx
	movq	8(%rbp), %rax
	movq	%rax, %rsi
	leaq	_ZN1B2m1Eii(%rip), %rax
	movq	%rax, %rdi
	call	__cyg_profile_func_exit@PLT
	movq	%rbx, %rax
	movq	%rax, %rdi
.LEHB21:
	call	_Unwind_Resume@PLT
.LEHE21:
.L26:
	.loc 1 61 73
	movq	-8(%rbp), %rbx
	leave
	.cfi_def_cfa 7, 8
	ret
	.cfi_endproc
.LFE37:
	.section	.gcc_except_table
.LLSDA37:
	.byte	0xff
	.byte	0xff
	.byte	0x1
	.uleb128 .LLSDACSE37-.LLSDACSB37
.LLSDACSB37:
	.uleb128 .LEHB18-.LFB37
	.uleb128 .LEHE18-.LEHB18
	.uleb128 0
	.uleb128 0
	.uleb128 .LEHB19-.LFB37
	.uleb128 .LEHE19-.LEHB19
	.uleb128 .L25-.LFB37
	.uleb128 0
	.uleb128 .LEHB20-.LFB37
	.uleb128 .LEHE20-.LEHB20
	.uleb128 0
	.uleb128 0
	.uleb128 .LEHB21-.LFB37
	.uleb128 .LEHE21-.LEHB21
	.uleb128 0
	.uleb128 0
.LLSDACSE37:
	.section	.text._ZN1B2m1Eii,"axG",@progbits,_ZN1B2m1Eii,comdat
	.size	_ZN1B2m1Eii, .-_ZN1B2m1Eii
	.section	.rodata
.LC7:
	.string	"B::m2()"
	.section	.text._ZN1B2m2Ei,"axG",@progbits,_ZN1B2m2Ei,comdat
	.align 2
	.weak	_ZN1B2m2Ei
	.type	_ZN1B2m2Ei, @function
_ZN1B2m2Ei:
.LFB38:
	.loc 1 62 17
	.cfi_startproc
	.cfi_personality 0x9b,DW.ref.__gxx_personality_v0
	.cfi_lsda 0x1b,.LLSDA38
	endbr64
	pushq	%rbp
	.cfi_def_cfa_offset 16
	.cfi_offset 6, -16
	movq	%rsp, %rbp
	.cfi_def_cfa_register 6
	pushq	%rbx
	subq	$24, %rsp
	.cfi_offset 3, -24
	movq	%rdi, -24(%rbp)
	movl	%esi, -28(%rbp)
	movq	8(%rbp), %rax
	movq	%rax, %rsi
	leaq	_ZN1B2m2Ei(%rip), %rax
	movq	%rax, %rdi
.LEHB22:
	call	__cyg_profile_func_enter@PLT
.LEHE22:
	.loc 1 62 34
	leaq	.LC7(%rip), %rax
	movq	%rax, %rdi
.LEHB23:
	call	puts@PLT
	.loc 1 62 51 discriminator 1
	movl	-28(%rbp), %eax
	movl	%eax, %edi
	call	_ZL2f1i
.LEHE23:
	.loc 1 62 63 discriminator 2
	movl	$21, %ebx
	movq	8(%rbp), %rax
	movq	%rax, %rsi
	leaq	_ZN1B2m2Ei(%rip), %rax
	movq	%rax, %rdi
.LEHB24:
	call	__cyg_profile_func_exit@PLT
.LEHE24:
	movl	%ebx, %eax
	jmp	.L31
.L30:
	endbr64
	movq	%rax, %rbx
	movq	8(%rbp), %rax
	movq	%rax, %rsi
	leaq	_ZN1B2m2Ei(%rip), %rax
	movq	%rax, %rdi
	call	__cyg_profile_func_exit@PLT
	movq	%rbx, %rax
	movq	%rax, %rdi
.LEHB25:
	call	_Unwind_Resume@PLT
.LEHE25:
.L31:
	.loc 1 62 66
	movq	-8(%rbp), %rbx
	leave
	.cfi_def_cfa 7, 8
	ret
	.cfi_endproc
.LFE38:
	.section	.gcc_except_table
.LLSDA38:
	.byte	0xff
	.byte	0xff
	.byte	0x1
	.uleb128 .LLSDACSE38-.LLSDACSB38
.LLSDACSB38:
	.uleb128 .LEHB22-.LFB38
	.uleb128 .LEHE22-.LEHB22
	.uleb128 0
	.uleb128 0
	.uleb128 .LEHB23-.LFB38
	.uleb128 .LEHE23-.LEHB23
	.uleb128 .L30-.LFB38
	.uleb128 0
	.uleb128 .LEHB24-.LFB38
	.uleb128 .LEHE24-.LEHB24
	.uleb128 0
	.uleb128 0
	.uleb128 .LEHB25-.LFB38
	.uleb128 .LEHE25-.LEHB25
	.uleb128 0
	.uleb128 0
.LLSDACSE38:
	.section	.text._ZN1B2m2Ei,"axG",@progbits,_ZN1B2m2Ei,comdat
	.size	_ZN1B2m2Ei, .-_ZN1B2m2Ei
	.section	.rodata
.LC8:
	.string	"D::D(int=%d)\n"
	.section	.text._ZN1DC2Ei,"axG",@progbits,_ZN1DC5Ei,comdat
	.align 2
	.weak	_ZN1DC2Ei
	.type	_ZN1DC2Ei, @function
_ZN1DC2Ei:
.LFB43:
	.loc 1 73 5
	.cfi_startproc
	.cfi_personality 0x9b,DW.ref.__gxx_personality_v0
	.cfi_lsda 0x1b,.LLSDA43
	endbr64
	pushq	%rbp
	.cfi_def_cfa_offset 16
	.cfi_offset 6, -16
	movq	%rsp, %rbp
	.cfi_def_cfa_register 6
	pushq	%rbx
	subq	$24, %rsp
	.cfi_offset 3, -24
	movq	%rdi, -24(%rbp)
	movl	%esi, -28(%rbp)
	movq	8(%rbp), %rax
	movq	%rax, %rsi
	leaq	_ZN1DC2Ei(%rip), %rax
	movq	%rax, %rdi
.LEHB26:
	call	__cyg_profile_func_enter@PLT
.LEHE26:
.LBB4:
	.loc 1 73 14
	movq	-24(%rbp), %rax
	movq	%rax, %rdi
.LEHB27:
	call	_ZN1BC2Ev
.LEHE27:
	.loc 1 73 14 is_stmt 0 discriminator 1
	leaq	16+_ZTV1D(%rip), %rdx
	movq	-24(%rbp), %rax
	movq	%rdx, (%rax)
	.loc 1 73 21 is_stmt 1 discriminator 1
	movq	-24(%rbp), %rax
	movl	8(%rax), %eax
	movl	%eax, %esi
	leaq	.LC8(%rip), %rax
	movq	%rax, %rdi
	movl	$0, %eax
.LEHB28:
	call	printf@PLT
.LEHE28:
.LBE4:
	movq	8(%rbp), %rax
	movq	%rax, %rsi
	leaq	_ZN1DC2Ei(%rip), %rax
	movq	%rax, %rdi
.LEHB29:
	call	__cyg_profile_func_exit@PLT
.LEHE29:
	.loc 1 73 45 discriminator 3
	jmp	.L37
.L36:
	endbr64
.LBB5:
	.loc 1 73 45 is_stmt 0
	movq	%rax, %rbx
	movq	-24(%rbp), %rax
	movq	%rax, %rdi
	call	_ZN1BD2Ev
	jmp	.L34
.L35:
	endbr64
.LBE5:
	movq	%rax, %rbx
.L34:
	movq	8(%rbp), %rax
	movq	%rax, %rsi
	leaq	_ZN1DC2Ei(%rip), %rax
	movq	%rax, %rdi
	call	__cyg_profile_func_exit@PLT
	movq	%rbx, %rax
	movq	%rax, %rdi
.LEHB30:
	call	_Unwind_Resume@PLT
.LEHE30:
.L37:
	movq	-8(%rbp), %rbx
	leave
	.cfi_def_cfa 7, 8
	ret
	.cfi_endproc
.LFE43:
	.section	.gcc_except_table
.LLSDA43:
	.byte	0xff
	.byte	0xff
	.byte	0x1
	.uleb128 .LLSDACSE43-.LLSDACSB43
.LLSDACSB43:
	.uleb128 .LEHB26-.LFB43
	.uleb128 .LEHE26-.LEHB26
	.uleb128 0
	.uleb128 0
	.uleb128 .LEHB27-.LFB43
	.uleb128 .LEHE27-.LEHB27
	.uleb128 .L35-.LFB43
	.uleb128 0
	.uleb128 .LEHB28-.LFB43
	.uleb128 .LEHE28-.LEHB28
	.uleb128 .L36-.LFB43
	.uleb128 0
	.uleb128 .LEHB29-.LFB43
	.uleb128 .LEHE29-.LEHB29
	.uleb128 0
	.uleb128 0
	.uleb128 .LEHB30-.LFB43
	.uleb128 .LEHE30-.LEHB30
	.uleb128 0
	.uleb128 0
.LLSDACSE43:
	.section	.text._ZN1DC2Ei,"axG",@progbits,_ZN1DC5Ei,comdat
	.size	_ZN1DC2Ei, .-_ZN1DC2Ei
	.weak	_ZN1DC1Ei
	.set	_ZN1DC1Ei,_ZN1DC2Ei
	.section	.rodata
.LC9:
	.string	"D::~D()"
	.section	.text._ZN1DD2Ev,"axG",@progbits,_ZN1DD5Ev,comdat
	.align 2
	.weak	_ZN1DD2Ev
	.type	_ZN1DD2Ev, @function
_ZN1DD2Ev:
.LFB46:
	.loc 1 74 13 is_stmt 1
	.cfi_startproc
	.cfi_personality 0x9b,DW.ref.__gxx_personality_v0
	.cfi_lsda 0x1b,.LLSDA46
	endbr64
	pushq	%rbp
	.cfi_def_cfa_offset 16
	.cfi_offset 6, -16
	movq	%rsp, %rbp
	.cfi_def_cfa_register 6
	subq	$16, %rsp
	movq	%rdi, -8(%rbp)
	movq	8(%rbp), %rax
	movq	%rax, %rsi
	leaq	_ZN1DD2Ev(%rip), %rax
	movq	%rax, %rdi
.LEHB31:
	call	__cyg_profile_func_enter@PLT
.LEHE31:
.LBB6:
	.loc 1 74 18
	leaq	16+_ZTV1D(%rip), %rdx
	movq	-8(%rbp), %rax
	movq	%rdx, (%rax)
	.loc 1 74 25
	leaq	.LC9(%rip), %rax
	movq	%rax, %rdi
	call	puts@PLT
	.loc 1 74 39
	movq	-8(%rbp), %rax
	movq	%rax, %rdi
	call	_ZN1BD2Ev
.LBE6:
	movq	8(%rbp), %rax
	movq	%rax, %rsi
	leaq	_ZN1DD2Ev(%rip), %rax
	movq	%rax, %rdi
.LEHB32:
	call	__cyg_profile_func_exit@PLT
.LEHE32:
	nop
	leave
	.cfi_def_cfa 7, 8
	ret
	.cfi_endproc
.LFE46:
	.section	.gcc_except_table
.LLSDA46:
	.byte	0xff
	.byte	0xff
	.byte	0x1
	.uleb128 .LLSDACSE46-.LLSDACSB46
.LLSDACSB46:
	.uleb128 .LEHB31-.LFB46
	.uleb128 .LEHE31-.LEHB31
	.uleb128 0
	.uleb128 0
	.uleb128 .LEHB32-.LFB46
	.uleb128 .LEHE32-.LEHB32
	.uleb128 0
	.uleb128 0
.LLSDACSE46:
	.section	.text._ZN1DD2Ev,"axG",@progbits,_ZN1DD5Ev,comdat
	.size	_ZN1DD2Ev, .-_ZN1DD2Ev
	.weak	_ZN1DD1Ev
	.set	_ZN1DD1Ev,_ZN1DD2Ev
	.section	.text._ZN1DD0Ev,"axG",@progbits,_ZN1DD5Ev,comdat
	.align 2
	.weak	_ZN1DD0Ev
	.type	_ZN1DD0Ev, @function
_ZN1DD0Ev:
.LFB48:
	.loc 1 74 13
	.cfi_startproc
	endbr64
	pushq	%rbp
	.cfi_def_cfa_offset 16
	.cfi_offset 6, -16
	movq	%rsp, %rbp
	.cfi_def_cfa_register 6
	subq	$16, %rsp
	movq	%rdi, -8(%rbp)
	movq	8(%rbp), %rax
	movq	%rax, %rsi
	leaq	_ZN1DD0Ev(%rip), %rax
	movq	%rax, %rdi
	call	__cyg_profile_func_enter@PLT
	.loc 1 74 39
	movq	-8(%rbp), %rax
	movq	%rax, %rdi
	call	_ZN1DD1Ev
	movq	-8(%rbp), %rax
	movl	$16, %esi
	movq	%rax, %rdi
	call	_ZdlPvm@PLT
	movq	8(%rbp), %rax
	movq	%rax, %rsi
	leaq	_ZN1DD0Ev(%rip), %rax
	movq	%rax, %rdi
	call	__cyg_profile_func_exit@PLT
	leave
	.cfi_def_cfa 7, 8
	ret
	.cfi_endproc
.LFE48:
	.size	_ZN1DD0Ev, .-_ZN1DD0Ev
	.section	.rodata
.LC10:
	.string	"D::m1()"
	.section	.text._ZN1D2m1Eii,"axG",@progbits,_ZN1D2m1Eii,comdat
	.align 2
	.weak	_ZN1D2m1Eii
	.type	_ZN1D2m1Eii, @function
_ZN1D2m1Eii:
.LFB49:
	.loc 1 76 17
	.cfi_startproc
	.cfi_personality 0x9b,DW.ref.__gxx_personality_v0
	.cfi_lsda 0x1b,.LLSDA49
	endbr64
	pushq	%rbp
	.cfi_def_cfa_offset 16
	.cfi_offset 6, -16
	movq	%rsp, %rbp
	.cfi_def_cfa_register 6
	pushq	%rbx
	subq	$24, %rsp
	.cfi_offset 3, -24
	movq	%rdi, -24(%rbp)
	movl	%esi, -28(%rbp)
	movl	%edx, -32(%rbp)
	movq	8(%rbp), %rax
	movq	%rax, %rsi
	leaq	_ZN1D2m1Eii(%rip), %rax
	movq	%rax, %rdi
.LEHB33:
	call	__cyg_profile_func_enter@PLT
.LEHE33:
	.loc 1 76 41
	leaq	.LC10(%rip), %rax
	movq	%rax, %rdi
.LEHB34:
	call	puts@PLT
	.loc 1 76 58 discriminator 1
	movq	-24(%rbp), %rax
	movq	(%rax), %rax
	addq	$24, %rax
	movq	(%rax), %rdx
	movq	-24(%rbp), %rax
	movl	-32(%rbp), %ecx
	addl	$10, %ecx
	movl	%ecx, %esi
	movq	%rax, %rdi
	call	*%rdx
.LVL0:
.LEHE34:
	.loc 1 76 73 discriminator 2
	movl	$30, %ebx
	movq	8(%rbp), %rax
	movq	%rax, %rsi
	leaq	_ZN1D2m1Eii(%rip), %rax
	movq	%rax, %rdi
.LEHB35:
	call	__cyg_profile_func_exit@PLT
.LEHE35:
	movl	%ebx, %eax
	jmp	.L44
.L43:
	endbr64
	movq	%rax, %rbx
	movq	8(%rbp), %rax
	movq	%rax, %rsi
	leaq	_ZN1D2m1Eii(%rip), %rax
	movq	%rax, %rdi
	call	__cyg_profile_func_exit@PLT
	movq	%rbx, %rax
	movq	%rax, %rdi
.LEHB36:
	call	_Unwind_Resume@PLT
.LEHE36:
.L44:
	.loc 1 76 76
	movq	-8(%rbp), %rbx
	leave
	.cfi_def_cfa 7, 8
	ret
	.cfi_endproc
.LFE49:
	.section	.gcc_except_table
.LLSDA49:
	.byte	0xff
	.byte	0xff
	.byte	0x1
	.uleb128 .LLSDACSE49-.LLSDACSB49
.LLSDACSB49:
	.uleb128 .LEHB33-.LFB49
	.uleb128 .LEHE33-.LEHB33
	.uleb128 0
	.uleb128 0
	.uleb128 .LEHB34-.LFB49
	.uleb128 .LEHE34-.LEHB34
	.uleb128 .L43-.LFB49
	.uleb128 0
	.uleb128 .LEHB35-.LFB49
	.uleb128 .LEHE35-.LEHB35
	.uleb128 0
	.uleb128 0
	.uleb128 .LEHB36-.LFB49
	.uleb128 .LEHE36-.LEHB36
	.uleb128 0
	.uleb128 0
.LLSDACSE49:
	.section	.text._ZN1D2m1Eii,"axG",@progbits,_ZN1D2m1Eii,comdat
	.size	_ZN1D2m1Eii, .-_ZN1D2m1Eii
	.text
	.type	_ZL15wrap_strerror_riPci, @function
_ZL15wrap_strerror_riPci:
.LFB50:
	.loc 1 84 1
	.cfi_startproc
	endbr64
	pushq	%rbp
	.cfi_def_cfa_offset 16
	.cfi_offset 6, -16
	movq	%rsp, %rbp
	.cfi_def_cfa_register 6
	pushq	%rbx
	subq	$40, %rsp
	.cfi_offset 3, -24
	movl	%edi, -36(%rbp)
	movq	%rsi, -48(%rbp)
	movl	%edx, -40(%rbp)
	movq	8(%rbp), %rax
	movq	%rax, %rsi
	leaq	_ZL15wrap_strerror_riPci(%rip), %rax
	movq	%rax, %rdi
	call	__cyg_profile_func_enter@PLT
	.loc 1 85 11
	movq	$0, -24(%rbp)
	.loc 1 87 11
	movl	-40(%rbp), %eax
	movslq	%eax, %rdx
	movq	-48(%rbp), %rax
	movl	$0, %esi
	movq	%rax, %rdi
	call	memset@PLT
	.loc 1 88 21
	movl	-40(%rbp), %eax
	movslq	%eax, %rdx
	movq	-48(%rbp), %rcx
	movl	-36(%rbp), %eax
	movq	%rcx, %rsi
	movl	%eax, %edi
	call	strerror_r@PLT
	movq	%rax, -24(%rbp)
	.loc 1 90 16
	cmpq	$0, -24(%rbp)
	je	.L46
	.loc 1 90 16 is_stmt 0 discriminator 1
	movq	-24(%rbp), %rbx
	jmp	.L47
.L46:
	.loc 1 90 16 discriminator 2
	movq	-48(%rbp), %rbx
.L47:
	movq	8(%rbp), %rax
	movq	%rax, %rsi
	leaq	_ZL15wrap_strerror_riPci(%rip), %rax
	movq	%rax, %rdi
	call	__cyg_profile_func_exit@PLT
	.loc 1 90 24 is_stmt 1 discriminator 4
	movq	%rbx, %rax
	.loc 1 91 1 discriminator 4
	movq	-8(%rbp), %rbx
	leave
	.cfi_def_cfa 7, 8
	ret
	.cfi_endproc
.LFE50:
	.size	_ZL15wrap_strerror_riPci, .-_ZL15wrap_strerror_riPci
	.section	.rodata
	.align 8
.LC11:
	.string	"Hello World! It's me, thread #%d!\n"
.LC12:
	.string	"T#%d!\n"
.LC13:
	.string	"T#%d+M2 (%s)\n"
.LC14:
	.string	"T#%d+M1 (%s)\n"
.LC15:
	.string	"T#%d-M1 (%s)\n"
.LC16:
	.string	"T#%d-M2 (%s)\n"
	.text
	.globl	_Z7thread1Pv
	.type	_Z7thread1Pv, @function
_Z7thread1Pv:
.LFB51:
	.loc 1 96 1
	.cfi_startproc
	.cfi_personality 0x9b,DW.ref.__gxx_personality_v0
	.cfi_lsda 0x1b,.LLSDA51
	endbr64
	pushq	%rbp
	.cfi_def_cfa_offset 16
	.cfi_offset 6, -16
	movq	%rsp, %rbp
	.cfi_def_cfa_register 6
	pushq	%r12
	pushq	%rbx
	subq	$304, %rsp
	.cfi_offset 12, -24
	.cfi_offset 3, -32
	movq	%rdi, -312(%rbp)
	.loc 1 96 1
	movq	%fs:40, %rax
	movq	%rax, -24(%rbp)
	xorl	%eax, %eax
	movq	8(%rbp), %rax
	movq	%rax, %rsi
	leaq	_Z7thread1Pv(%rip), %rax
	movq	%rax, %rdi
.LEHB37:
	call	__cyg_profile_func_enter@PLT
.LEHE37:
	.loc 1 97 9
	movq	-312(%rbp), %rax
	movl	(%rax), %eax
	movl	%eax, -304(%rbp)
	.loc 1 98 22
	movl	$16, %edi
.LEHB38:
	call	_Znwm@PLT
.LEHE38:
	movq	%rax, %rbx
	movl	-304(%rbp), %eax
	movl	%eax, %esi
	movq	%rbx, %rdi
.LEHB39:
	call	_ZN1DC1Ei
.LEHE39:
	.loc 1 98 22 is_stmt 0 discriminator 3
	movq	%rbx, -296(%rbp)
	.loc 1 100 11 is_stmt 1 discriminator 3
	movl	-304(%rbp), %eax
	movl	%eax, %esi
	leaq	.LC11(%rip), %rax
	movq	%rax, %rdi
	movl	$0, %eax
.LEHB40:
	call	printf@PLT
	.loc 1 102 5
	jmp	.L50
.L53:
.LBB7:
	.loc 1 103 14
	movq	$0, -288(%rbp)
	movq	$0, -280(%rbp)
	movq	$0, -272(%rbp)
	movq	$0, -264(%rbp)
	movq	$0, -256(%rbp)
	movq	$0, -248(%rbp)
	movq	$0, -240(%rbp)
	movq	$0, -232(%rbp)
	movq	$0, -224(%rbp)
	movq	$0, -216(%rbp)
	movq	$0, -208(%rbp)
	movq	$0, -200(%rbp)
	movq	$0, -192(%rbp)
	movq	$0, -184(%rbp)
	movq	$0, -176(%rbp)
	movq	$0, -168(%rbp)
	movq	$0, -160(%rbp)
	movq	$0, -152(%rbp)
	movq	$0, -144(%rbp)
	movq	$0, -136(%rbp)
	movq	$0, -128(%rbp)
	movq	$0, -120(%rbp)
	movq	$0, -112(%rbp)
	movq	$0, -104(%rbp)
	movq	$0, -96(%rbp)
	movq	$0, -88(%rbp)
	movq	$0, -80(%rbp)
	movq	$0, -72(%rbp)
	movq	$0, -64(%rbp)
	movq	$0, -56(%rbp)
	movq	$0, -48(%rbp)
	movq	$0, -40(%rbp)
	.loc 1 106 14
	movl	$1, %edi
	call	sleep@PLT
	.loc 1 107 15
	movl	-304(%rbp), %eax
	movl	%eax, %esi
	leaq	.LC12(%rip), %rax
	movq	%rax, %rdi
	movl	$0, %eax
	call	printf@PLT
	.loc 1 109 33
	leaq	_ZL6mutex2(%rip), %rax
	movq	%rax, %rdi
	call	pthread_mutex_lock@PLT
	movl	%eax, -300(%rbp)
	.loc 1 110 9
	cmpl	$0, -300(%rbp)
	jne	.L50
	.loc 1 111 19
	leaq	-288(%rbp), %rcx
	movl	-300(%rbp), %eax
	movl	$255, %edx
	movq	%rcx, %rsi
	movl	%eax, %edi
	call	_ZL15wrap_strerror_riPci
	movq	%rax, %rdx
	movl	-304(%rbp), %eax
	movl	%eax, %esi
	leaq	.LC13(%rip), %rax
	movq	%rax, %rdi
	movl	$0, %eax
	call	printf@PLT
	.loc 1 113 18
	movl	$2, %edi
	call	sleep@PLT
	.loc 1 115 13
	cmpl	$0, -300(%rbp)
	jne	.L52
	.loc 1 116 41
	leaq	_ZL6mutex1(%rip), %rax
	movq	%rax, %rdi
	call	pthread_mutex_lock@PLT
	movl	%eax, -300(%rbp)
	.loc 1 117 23
	leaq	-288(%rbp), %rcx
	movl	-300(%rbp), %eax
	movl	$255, %edx
	movq	%rcx, %rsi
	movl	%eax, %edi
	call	_ZL15wrap_strerror_riPci
	movq	%rax, %rdx
	movl	-304(%rbp), %eax
	movl	%eax, %esi
	leaq	.LC14(%rip), %rax
	movq	%rax, %rdi
	movl	$0, %eax
	call	printf@PLT
	.loc 1 119 22
	movl	$1, %edi
	call	sleep@PLT
	.loc 1 121 23
	movq	-296(%rbp), %rax
	movq	(%rax), %rax
	addq	$16, %rax
	movq	(%rax), %rcx
	movq	-296(%rbp), %rax
	movl	$2, %edx
	movl	$1, %esi
	movq	%rax, %rdi
	call	*%rcx
.LVL1:
	.loc 1 122 22
	movl	$1, %edi
	call	sleep@PLT
	.loc 1 124 43
	leaq	_ZL6mutex1(%rip), %rax
	movq	%rax, %rdi
	call	pthread_mutex_unlock@PLT
	movl	%eax, -300(%rbp)
	.loc 1 125 23
	leaq	-288(%rbp), %rcx
	movl	-300(%rbp), %eax
	movl	$255, %edx
	movq	%rcx, %rsi
	movl	%eax, %edi
	call	_ZL15wrap_strerror_riPci
	movq	%rax, %rdx
	movl	-304(%rbp), %eax
	movl	%eax, %esi
	leaq	.LC15(%rip), %rax
	movq	%rax, %rdi
	movl	$0, %eax
	call	printf@PLT
	.loc 1 127 22
	movl	$1, %edi
	call	sleep@PLT
.L52:
	.loc 1 130 39
	leaq	_ZL6mutex2(%rip), %rax
	movq	%rax, %rdi
	call	pthread_mutex_unlock@PLT
	movl	%eax, -300(%rbp)
	.loc 1 131 19
	leaq	-288(%rbp), %rcx
	movl	-300(%rbp), %eax
	movl	$255, %edx
	movq	%rcx, %rsi
	movl	%eax, %edi
	call	_ZL15wrap_strerror_riPci
	movq	%rax, %rdx
	movl	-304(%rbp), %eax
	movl	%eax, %esi
	leaq	.LC16(%rip), %rax
	movq	%rax, %rdi
	movl	$0, %eax
	call	printf@PLT
.L50:
.LBE7:
	.loc 1 102 12
	movl	_ZL8_do_exit(%rip), %eax
	testl	%eax, %eax
	je	.L53
	.loc 1 136 12
	movq	-296(%rbp), %rax
	.loc 1 136 5
	testq	%rax, %rax
	je	.L54
	.loc 1 136 12 discriminator 1
	movq	(%rax), %rdx
	addq	$8, %rdx
	movq	(%rdx), %rdx
	movq	%rax, %rdi
	call	*%rdx
.LVL2:
.L54:
	.loc 1 137 17
	movl	$0, %edi
	call	pthread_exit@PLT
.LEHE40:
.L59:
	endbr64
	.loc 1 98 22
	movq	%rax, %r12
	movl	$16, %esi
	movq	%rbx, %rdi
	call	_ZdlPvm@PLT
	movq	%r12, %rbx
	jmp	.L56
.L58:
	endbr64
	movq	%rax, %rbx
.L56:
	movq	8(%rbp), %rax
	movq	%rax, %rsi
	leaq	_Z7thread1Pv(%rip), %rax
	movq	%rax, %rdi
	call	__cyg_profile_func_exit@PLT
	movq	%rbx, %rax
	movq	%rax, %rdi
.LEHB41:
	call	_Unwind_Resume@PLT
.LEHE41:
	.cfi_endproc
.LFE51:
	.section	.gcc_except_table
.LLSDA51:
	.byte	0xff
	.byte	0xff
	.byte	0x1
	.uleb128 .LLSDACSE51-.LLSDACSB51
.LLSDACSB51:
	.uleb128 .LEHB37-.LFB51
	.uleb128 .LEHE37-.LEHB37
	.uleb128 0
	.uleb128 0
	.uleb128 .LEHB38-.LFB51
	.uleb128 .LEHE38-.LEHB38
	.uleb128 .L58-.LFB51
	.uleb128 0
	.uleb128 .LEHB39-.LFB51
	.uleb128 .LEHE39-.LEHB39
	.uleb128 .L59-.LFB51
	.uleb128 0
	.uleb128 .LEHB40-.LFB51
	.uleb128 .LEHE40-.LEHB40
	.uleb128 .L58-.LFB51
	.uleb128 0
	.uleb128 .LEHB41-.LFB51
	.uleb128 .LEHE41-.LEHB41
	.uleb128 0
	.uleb128 0
.LLSDACSE51:
	.text
	.size	_Z7thread1Pv, .-_Z7thread1Pv
	.globl	_Z7thread2Pv
	.type	_Z7thread2Pv, @function
_Z7thread2Pv:
.LFB52:
	.loc 1 142 1
	.cfi_startproc
	.cfi_personality 0x9b,DW.ref.__gxx_personality_v0
	.cfi_lsda 0x1b,.LLSDA52
	endbr64
	pushq	%rbp
	.cfi_def_cfa_offset 16
	.cfi_offset 6, -16
	movq	%rsp, %rbp
	.cfi_def_cfa_register 6
	pushq	%r12
	pushq	%rbx
	subq	$32, %rsp
	.cfi_offset 12, -24
	.cfi_offset 3, -32
	movq	%rdi, -40(%rbp)
	movq	8(%rbp), %rax
	movq	%rax, %rsi
	leaq	_Z7thread2Pv(%rip), %rax
	movq	%rax, %rdi
.LEHB42:
	call	__cyg_profile_func_enter@PLT
.LEHE42:
	.loc 1 143 9
	movq	-40(%rbp), %rax
	movl	(%rax), %eax
	movl	%eax, -28(%rbp)
	.loc 1 144 22
	movl	$16, %edi
.LEHB43:
	call	_Znwm@PLT
.LEHE43:
	movq	%rax, %rbx
	movl	-28(%rbp), %eax
	movl	%eax, %esi
	movq	%rbx, %rdi
.LEHB44:
	call	_ZN1DC1Ei
.LEHE44:
	.loc 1 144 22 is_stmt 0 discriminator 3
	movq	%rbx, -24(%rbp)
	.loc 1 146 11 is_stmt 1 discriminator 3
	movl	-28(%rbp), %eax
	movl	%eax, %esi
	leaq	.LC11(%rip), %rax
	movq	%rax, %rdi
	movl	$0, %eax
.LEHB45:
	call	printf@PLT
	.loc 1 148 5
	jmp	.L61
.L62:
	.loc 1 150 15
	movl	-28(%rbp), %eax
	movl	%eax, %esi
	leaq	.LC12(%rip), %rax
	movq	%rax, %rdi
	movl	$0, %eax
	call	printf@PLT
	.loc 1 151 14
	movl	$1, %edi
	call	sleep@PLT
	.loc 1 152 15
	movq	-24(%rbp), %rax
	movq	(%rax), %rax
	addq	$16, %rax
	movq	(%rax), %rcx
	movq	-24(%rbp), %rax
	movl	$4, %edx
	movl	$3, %esi
	movq	%rax, %rdi
	call	*%rcx
.LVL3:
.L61:
	.loc 1 148 12
	movl	_ZL8_do_exit(%rip), %eax
	testl	%eax, %eax
	je	.L62
	.loc 1 156 12
	movq	-24(%rbp), %rax
	.loc 1 156 5
	testq	%rax, %rax
	je	.L63
	.loc 1 156 12 discriminator 1
	movq	(%rax), %rdx
	addq	$8, %rdx
	movq	(%rdx), %rdx
	movq	%rax, %rdi
	call	*%rdx
.LVL4:
.L63:
	.loc 1 157 17
	movl	$0, %edi
	call	pthread_exit@PLT
.LEHE45:
.L67:
	endbr64
	.loc 1 144 22
	movq	%rax, %r12
	movl	$16, %esi
	movq	%rbx, %rdi
	call	_ZdlPvm@PLT
	movq	%r12, %rbx
	jmp	.L65
.L66:
	endbr64
	movq	%rax, %rbx
.L65:
	movq	8(%rbp), %rax
	movq	%rax, %rsi
	leaq	_Z7thread2Pv(%rip), %rax
	movq	%rax, %rdi
	call	__cyg_profile_func_exit@PLT
	movq	%rbx, %rax
	movq	%rax, %rdi
.LEHB46:
	call	_Unwind_Resume@PLT
.LEHE46:
	.cfi_endproc
.LFE52:
	.section	.gcc_except_table
.LLSDA52:
	.byte	0xff
	.byte	0xff
	.byte	0x1
	.uleb128 .LLSDACSE52-.LLSDACSB52
.LLSDACSB52:
	.uleb128 .LEHB42-.LFB52
	.uleb128 .LEHE42-.LEHB42
	.uleb128 0
	.uleb128 0
	.uleb128 .LEHB43-.LFB52
	.uleb128 .LEHE43-.LEHB43
	.uleb128 .L66-.LFB52
	.uleb128 0
	.uleb128 .LEHB44-.LFB52
	.uleb128 .LEHE44-.LEHB44
	.uleb128 .L67-.LFB52
	.uleb128 0
	.uleb128 .LEHB45-.LFB52
	.uleb128 .LEHE45-.LEHB45
	.uleb128 .L66-.LFB52
	.uleb128 0
	.uleb128 .LEHB46-.LFB52
	.uleb128 .LEHE46-.LEHB46
	.uleb128 0
	.uleb128 0
.LLSDACSE52:
	.text
	.size	_Z7thread2Pv, .-_Z7thread2Pv
	.section	.rodata
.LC17:
	.string	"T#%d+M3=%d (%s)\n"
	.text
	.globl	_Z7thread3Pv
	.type	_Z7thread3Pv, @function
_Z7thread3Pv:
.LFB53:
	.loc 1 162 1
	.cfi_startproc
	.cfi_personality 0x9b,DW.ref.__gxx_personality_v0
	.cfi_lsda 0x1b,.LLSDA53
	endbr64
	pushq	%rbp
	.cfi_def_cfa_offset 16
	.cfi_offset 6, -16
	movq	%rsp, %rbp
	.cfi_def_cfa_register 6
	pushq	%r12
	pushq	%rbx
	subq	$304, %rsp
	.cfi_offset 12, -24
	.cfi_offset 3, -32
	movq	%rdi, -312(%rbp)
	.loc 1 162 1
	movq	%fs:40, %rax
	movq	%rax, -24(%rbp)
	xorl	%eax, %eax
	movq	8(%rbp), %rax
	movq	%rax, %rsi
	leaq	_Z7thread3Pv(%rip), %rax
	movq	%rax, %rdi
.LEHB47:
	call	__cyg_profile_func_enter@PLT
.LEHE47:
	.loc 1 163 9
	movq	-312(%rbp), %rax
	movl	(%rax), %eax
	movl	%eax, -304(%rbp)
	.loc 1 164 22
	movl	$16, %edi
.LEHB48:
	call	_Znwm@PLT
.LEHE48:
	movq	%rax, %rbx
	movl	-304(%rbp), %eax
	movl	%eax, %esi
	movq	%rbx, %rdi
.LEHB49:
	call	_ZN1DC1Ei
.LEHE49:
	.loc 1 164 22 is_stmt 0 discriminator 3
	movq	%rbx, -296(%rbp)
	.loc 1 166 11 is_stmt 1 discriminator 3
	movl	-304(%rbp), %eax
	movl	%eax, %esi
	leaq	.LC11(%rip), %rax
	movq	%rax, %rdi
	movl	$0, %eax
.LEHB50:
	call	printf@PLT
	.loc 1 168 5
	jmp	.L69
.L70:
.LBB8:
	.loc 1 170 14
	movq	$0, -288(%rbp)
	movq	$0, -280(%rbp)
	movq	$0, -272(%rbp)
	movq	$0, -264(%rbp)
	movq	$0, -256(%rbp)
	movq	$0, -248(%rbp)
	movq	$0, -240(%rbp)
	movq	$0, -232(%rbp)
	movq	$0, -224(%rbp)
	movq	$0, -216(%rbp)
	movq	$0, -208(%rbp)
	movq	$0, -200(%rbp)
	movq	$0, -192(%rbp)
	movq	$0, -184(%rbp)
	movq	$0, -176(%rbp)
	movq	$0, -168(%rbp)
	movq	$0, -160(%rbp)
	movq	$0, -152(%rbp)
	movq	$0, -144(%rbp)
	movq	$0, -136(%rbp)
	movq	$0, -128(%rbp)
	movq	$0, -120(%rbp)
	movq	$0, -112(%rbp)
	movq	$0, -104(%rbp)
	movq	$0, -96(%rbp)
	movq	$0, -88(%rbp)
	movq	$0, -80(%rbp)
	movq	$0, -72(%rbp)
	movq	$0, -64(%rbp)
	movq	$0, -56(%rbp)
	movq	$0, -48(%rbp)
	movq	$0, -40(%rbp)
	.loc 1 172 14
	movl	$1, %edi
	call	sleep@PLT
	.loc 1 173 15
	movl	-304(%rbp), %eax
	movl	%eax, %esi
	leaq	.LC12(%rip), %rax
	movq	%rax, %rdi
	movl	$0, %eax
	call	printf@PLT
	.loc 1 175 36
	leaq	_ZL6mutex3(%rip), %rax
	movq	%rax, %rdi
	call	pthread_mutex_trylock@PLT
	movl	%eax, -300(%rbp)
	.loc 1 176 15
	leaq	-288(%rbp), %rcx
	movl	-300(%rbp), %eax
	movl	$255, %edx
	movq	%rcx, %rsi
	movl	%eax, %edi
	call	_ZL15wrap_strerror_riPci
	movq	%rax, %rcx
	movl	-300(%rbp), %edx
	movl	-304(%rbp), %eax
	movl	%eax, %esi
	leaq	.LC17(%rip), %rax
	movq	%rax, %rdi
	movl	$0, %eax
	call	printf@PLT
	.loc 1 178 14
	movl	$2, %edi
	call	sleep@PLT
	.loc 1 180 15
	movq	-296(%rbp), %rax
	movq	(%rax), %rax
	addq	$16, %rax
	movq	(%rax), %rcx
	movq	-296(%rbp), %rax
	movl	$6, %edx
	movl	$5, %esi
	movq	%rax, %rdi
	call	*%rcx
.LVL5:
.L69:
.LBE8:
	.loc 1 168 12
	movl	_ZL8_do_exit(%rip), %eax
	testl	%eax, %eax
	je	.L70
	.loc 1 183 12
	movq	-296(%rbp), %rax
	.loc 1 183 5
	testq	%rax, %rax
	je	.L71
	.loc 1 183 12 discriminator 1
	movq	(%rax), %rdx
	addq	$8, %rdx
	movq	(%rdx), %rdx
	movq	%rax, %rdi
	call	*%rdx
.LVL6:
.L71:
	.loc 1 184 17
	movl	$0, %edi
	call	pthread_exit@PLT
.LEHE50:
.L76:
	endbr64
	.loc 1 164 22
	movq	%rax, %r12
	movl	$16, %esi
	movq	%rbx, %rdi
	call	_ZdlPvm@PLT
	movq	%r12, %rbx
	jmp	.L73
.L75:
	endbr64
	movq	%rax, %rbx
.L73:
	movq	8(%rbp), %rax
	movq	%rax, %rsi
	leaq	_Z7thread3Pv(%rip), %rax
	movq	%rax, %rdi
	call	__cyg_profile_func_exit@PLT
	movq	%rbx, %rax
	movq	%rax, %rdi
.LEHB51:
	call	_Unwind_Resume@PLT
.LEHE51:
	.cfi_endproc
.LFE53:
	.section	.gcc_except_table
.LLSDA53:
	.byte	0xff
	.byte	0xff
	.byte	0x1
	.uleb128 .LLSDACSE53-.LLSDACSB53
.LLSDACSB53:
	.uleb128 .LEHB47-.LFB53
	.uleb128 .LEHE47-.LEHB47
	.uleb128 0
	.uleb128 0
	.uleb128 .LEHB48-.LFB53
	.uleb128 .LEHE48-.LEHB48
	.uleb128 .L75-.LFB53
	.uleb128 0
	.uleb128 .LEHB49-.LFB53
	.uleb128 .LEHE49-.LEHB49
	.uleb128 .L76-.LFB53
	.uleb128 0
	.uleb128 .LEHB50-.LFB53
	.uleb128 .LEHE50-.LEHB50
	.uleb128 .L75-.LFB53
	.uleb128 0
	.uleb128 .LEHB51-.LFB53
	.uleb128 .LEHE51-.LEHB51
	.uleb128 0
	.uleb128 0
.LLSDACSE53:
	.text
	.size	_Z7thread3Pv, .-_Z7thread3Pv
	.type	_ZL7sigexiti, @function
_ZL7sigexiti:
.LFB54:
	.loc 1 190 1
	.cfi_startproc
	endbr64
	pushq	%rbp
	.cfi_def_cfa_offset 16
	.cfi_offset 6, -16
	movq	%rsp, %rbp
	.cfi_def_cfa_register 6
	subq	$16, %rsp
	movl	%edi, -4(%rbp)
	movq	8(%rbp), %rax
	movq	%rax, %rsi
	leaq	_ZL7sigexiti(%rip), %rax
	movq	%rax, %rdi
	call	__cyg_profile_func_enter@PLT
	.loc 1 191 14
	movl	$1, _ZL8_do_exit(%rip)
	movq	8(%rbp), %rax
	movq	%rax, %rsi
	leaq	_ZL7sigexiti(%rip), %rax
	movq	%rax, %rdi
	call	__cyg_profile_func_exit@PLT
	.loc 1 192 1
	nop
	leave
	.cfi_def_cfa 7, 8
	ret
	.cfi_endproc
.LFE54:
	.size	_ZL7sigexiti, .-_ZL7sigexiti
	.type	_ZL10set_signaliPFviE, @function
_ZL10set_signaliPFviE:
.LFB55:
	.loc 1 196 1
	.cfi_startproc
	endbr64
	pushq	%rbp
	.cfi_def_cfa_offset 16
	.cfi_offset 6, -16
	movq	%rsp, %rbp
	.cfi_def_cfa_register 6
	subq	$176, %rsp
	movl	%edi, -164(%rbp)
	movq	%rsi, -176(%rbp)
	.loc 1 196 1
	movq	%fs:40, %rax
	movq	%rax, -8(%rbp)
	xorl	%eax, %eax
	movq	8(%rbp), %rax
	movq	%rax, %rsi
	leaq	_ZL10set_signaliPFviE(%rip), %rax
	movq	%rax, %rdi
	call	__cyg_profile_func_enter@PLT
	.loc 1 199 11
	leaq	-160(%rbp), %rax
	movl	$152, %edx
	movl	$0, %esi
	movq	%rax, %rdi
	call	memset@PLT
	.loc 1 200 18
	movq	-176(%rbp), %rax
	movq	%rax, -160(%rbp)
	.loc 1 201 14
	leaq	-160(%rbp), %rcx
	movl	-164(%rbp), %eax
	movl	$0, %edx
	movq	%rcx, %rsi
	movl	%eax, %edi
	call	sigaction@PLT
	movq	8(%rbp), %rax
	movq	%rax, %rsi
	leaq	_ZL10set_signaliPFviE(%rip), %rax
	movq	%rax, %rdi
	call	__cyg_profile_func_exit@PLT
	.loc 1 202 1
	nop
	movq	-8(%rbp), %rax
	subq	%fs:40, %rax
	je	.L79
	call	__stack_chk_fail@PLT
.L79:
	leave
	.cfi_def_cfa 7, 8
	ret
	.cfi_endproc
.LFE55:
	.size	_ZL10set_signaliPFviE, .-_ZL10set_signaliPFviE
	.section	.rodata
.LC18:
	.string	"%s: main(argc=%d)\n"
	.align 8
.LC19:
	.string	"Error: return code from pthread_create() is %d\n"
.LC20:
	.string	"%s: done.\n"
	.text
	.globl	main
	.type	main, @function
main:
.LFB56:
	.loc 1 207 1
	.cfi_startproc
	.cfi_personality 0x9b,DW.ref.__gxx_personality_v0
	.cfi_lsda 0x1b,.LLSDA56
	endbr64
	pushq	%rbp
	.cfi_def_cfa_offset 16
	.cfi_offset 6, -16
	movq	%rsp, %rbp
	.cfi_def_cfa_register 6
	pushq	%rbx
	subq	$120, %rsp
	.cfi_offset 3, -24
	movl	%edi, -116(%rbp)
	movq	%rsi, -128(%rbp)
	.loc 1 207 1
	movq	%fs:40, %rax
	movq	%rax, -24(%rbp)
	xorl	%eax, %eax
	movq	8(%rbp), %rax
	movq	%rax, %rsi
	leaq	main(%rip), %rax
	movq	%rax, %rdi
.LEHB52:
	call	__cyg_profile_func_enter@PLT
.LEHE52:
	.loc 1 211 15
	movq	$0, -80(%rbp)
	movq	$0, -72(%rbp)
	movq	$0, -64(%rbp)
	.loc 1 212 18
	leaq	_Z7thread1Pv(%rip), %rax
	movq	%rax, -48(%rbp)
	leaq	_Z7thread2Pv(%rip), %rax
	movq	%rax, -40(%rbp)
	leaq	_Z7thread3Pv(%rip), %rax
	movq	%rax, -32(%rbp)
	.loc 1 213 6
	movl	$1, -92(%rbp)
	movl	$2, -88(%rbp)
	movl	$3, -84(%rbp)
	.loc 1 216 15
	leaq	_ZL7sigexiti(%rip), %rax
	movq	%rax, %rsi
	movl	$2, %edi
	call	_ZL10set_signaliPFviE
	.loc 1 217 15
	leaq	_ZL7sigexiti(%rip), %rax
	movq	%rax, %rsi
	movl	$3, %edi
	call	_ZL10set_signaliPFviE
	.loc 1 219 11
	movq	-128(%rbp), %rax
	movq	(%rax), %rax
	movl	-116(%rbp), %edx
	movq	%rax, %rsi
	leaq	.LC18(%rip), %rax
	movq	%rax, %rdi
	movl	$0, %eax
.LEHB53:
	call	printf@PLT
	.loc 1 221 11
	movl	$0, -100(%rbp)
	.loc 1 221 5
	jmp	.L81
.L83:
	.loc 1 222 65
	leaq	-92(%rbp), %rdx
	movl	-100(%rbp), %eax
	cltq
	salq	$2, %rax
	addq	%rax, %rdx
	.loc 1 222 28
	movl	-100(%rbp), %eax
	cltq
	movq	-48(%rbp,%rax,8), %rax
	leaq	-80(%rbp), %rsi
	movl	-100(%rbp), %ecx
	movslq	%ecx, %rcx
	salq	$3, %rcx
	leaq	(%rsi,%rcx), %rdi
	movq	%rdx, %rcx
	movq	%rax, %rdx
	movl	$0, %esi
	call	pthread_create@PLT
	movl	%eax, -96(%rbp)
	.loc 1 223 9
	cmpl	$0, -96(%rbp)
	je	.L82
	.loc 1 224 19
	movl	-96(%rbp), %eax
	movl	%eax, %esi
	leaq	.LC19(%rip), %rax
	movq	%rax, %rdi
	movl	$0, %eax
	call	printf@PLT
	.loc 1 225 17
	movl	$1, %edi
	call	exit@PLT
.L82:
	.loc 1 221 5 discriminator 2
	addl	$1, -100(%rbp)
.L81:
	.loc 1 221 16 discriminator 1
	cmpl	$2, -100(%rbp)
	jle	.L83
	.loc 1 229 5
	jmp	.L84
.L85:
	.loc 1 230 14
	movl	$1, %edi
	call	sleep@PLT
.L84:
	.loc 1 229 12
	movl	_ZL8_do_exit(%rip), %eax
	testl	%eax, %eax
	je	.L85
	.loc 1 232 11
	movq	-128(%rbp), %rax
	movq	(%rax), %rax
	movq	%rax, %rsi
	leaq	.LC20(%rip), %rax
	movq	%rax, %rdi
	movl	$0, %eax
	call	printf@PLT
.LEHE53:
	.loc 1 233 11
	movl	$0, %ebx
	movq	8(%rbp), %rax
	movq	%rax, %rsi
	leaq	main(%rip), %rax
	movq	%rax, %rdi
.LEHB54:
	call	__cyg_profile_func_exit@PLT
.LEHE54:
	.loc 1 234 1
	movl	%ebx, %eax
	movq	-24(%rbp), %rdx
	subq	%fs:40, %rdx
	je	.L88
	jmp	.L90
.L89:
	endbr64
	movq	%rax, %rbx
	movq	8(%rbp), %rax
	movq	%rax, %rsi
	leaq	main(%rip), %rax
	movq	%rax, %rdi
	call	__cyg_profile_func_exit@PLT
	movq	%rbx, %rax
	movq	%rax, %rdi
.LEHB55:
	call	_Unwind_Resume@PLT
.LEHE55:
.L90:
	call	__stack_chk_fail@PLT
.L88:
	movq	-8(%rbp), %rbx
	leave
	.cfi_def_cfa 7, 8
	ret
	.cfi_endproc
.LFE56:
	.section	.gcc_except_table
.LLSDA56:
	.byte	0xff
	.byte	0xff
	.byte	0x1
	.uleb128 .LLSDACSE56-.LLSDACSB56
.LLSDACSB56:
	.uleb128 .LEHB52-.LFB56
	.uleb128 .LEHE52-.LEHB52
	.uleb128 0
	.uleb128 0
	.uleb128 .LEHB53-.LFB56
	.uleb128 .LEHE53-.LEHB53
	.uleb128 .L89-.LFB56
	.uleb128 0
	.uleb128 .LEHB54-.LFB56
	.uleb128 .LEHE54-.LEHB54
	.uleb128 0
	.uleb128 0
	.uleb128 .LEHB55-.LFB56
	.uleb128 .LEHE55-.LEHB55
	.uleb128 0
	.uleb128 0
.LLSDACSE56:
	.text
	.size	main, .-main
	.weak	_ZTV1D
	.section	.data.rel.ro.local._ZTV1D,"awG",@progbits,_ZTV1D,comdat
	.align 8
	.type	_ZTV1D, @object
	.size	_ZTV1D, 48
_ZTV1D:
	.quad	0
	.quad	_ZTI1D
	.quad	_ZN1DD1Ev
	.quad	_ZN1DD0Ev
	.quad	_ZN1D2m1Eii
	.quad	_ZN1B2m2Ei
	.weak	_ZTV1B
	.section	.data.rel.ro.local._ZTV1B,"awG",@progbits,_ZTV1B,comdat
	.align 8
	.type	_ZTV1B, @object
	.size	_ZTV1B, 48
_ZTV1B:
	.quad	0
	.quad	_ZTI1B
	.quad	_ZN1BD1Ev
	.quad	_ZN1BD0Ev
	.quad	_ZN1B2m1Eii
	.quad	_ZN1B2m2Ei
	.weak	_ZTI1D
	.section	.data.rel.ro._ZTI1D,"awG",@progbits,_ZTI1D,comdat
	.align 8
	.type	_ZTI1D, @object
	.size	_ZTI1D, 24
_ZTI1D:
	.quad	_ZTVN10__cxxabiv120__si_class_type_infoE+16
	.quad	_ZTS1D
	.quad	_ZTI1B
	.weak	_ZTS1D
	.section	.rodata._ZTS1D,"aG",@progbits,_ZTS1D,comdat
	.type	_ZTS1D, @object
	.size	_ZTS1D, 3
_ZTS1D:
	.string	"1D"
	.weak	_ZTI1B
	.section	.data.rel.ro._ZTI1B,"awG",@progbits,_ZTI1B,comdat
	.align 8
	.type	_ZTI1B, @object
	.size	_ZTI1B, 16
_ZTI1B:
	.quad	_ZTVN10__cxxabiv117__class_type_infoE+16
	.quad	_ZTS1B
	.weak	_ZTS1B
	.section	.rodata._ZTS1B,"aG",@progbits,_ZTS1B,comdat
	.type	_ZTS1B, @object
	.size	_ZTS1B, 3
_ZTS1B:
	.string	"1B"
	.text
.Letext0:
	.file 2 "/usr/include/x86_64-linux-gnu/bits/types.h"
	.file 3 "/usr/lib/gcc/x86_64-linux-gnu/11/include/stddef.h"
	.file 4 "/usr/include/x86_64-linux-gnu/bits/types/__mbstate_t.h"
	.file 5 "/usr/include/x86_64-linux-gnu/bits/types/__fpos_t.h"
	.file 6 "/usr/include/x86_64-linux-gnu/bits/types/struct_FILE.h"
	.file 7 "/usr/include/x86_64-linux-gnu/bits/types/FILE.h"
	.file 8 "/usr/include/stdio.h"
	.file 9 "/usr/include/c++/11/cstdio"
	.file 10 "/usr/include/c++/11/cstdlib"
	.file 11 "/usr/include/c++/11/cstring"
	.file 12 "/usr/include/stdlib.h"
	.file 13 "/usr/include/x86_64-linux-gnu/bits/types/__sigset_t.h"
	.file 14 "/usr/include/x86_64-linux-gnu/bits/thread-shared-types.h"
	.file 15 "/usr/include/x86_64-linux-gnu/bits/struct_mutex.h"
	.file 16 "/usr/include/x86_64-linux-gnu/bits/pthreadtypes.h"
	.file 17 "/usr/include/string.h"
	.file 18 "/usr/include/x86_64-linux-gnu/bits/types/__sigval_t.h"
	.file 19 "/usr/include/x86_64-linux-gnu/bits/types/siginfo_t.h"
	.file 20 "/usr/include/signal.h"
	.file 21 "/usr/include/x86_64-linux-gnu/bits/sigaction.h"
	.file 22 "/usr/include/x86_64-linux-gnu/bits/confname.h"
	.file 23 "/usr/include/pthread.h"
	.file 24 "/usr/include/unistd.h"
	.file 25 "/usr/include/x86_64-linux-gnu/c++/11/bits/c++config.h"
	.section	.data.rel.local.DW.ref.__gxx_personality_v0,"awG",@progbits,DW.ref.__gxx_personality_v0,comdat
	.align 8
	.type	DW.ref.__gxx_personality_v0, @object
	.size	DW.ref.__gxx_personality_v0, 8
DW.ref.__gxx_personality_v0:
	.quad	__gxx_personality_v0
	.ident	"GCC: (Ubuntu 11.4.0-1ubuntu1~22.04) 11.4.0"
	.section	.note.GNU-stack,"",@progbits
	.section	.note.gnu.property,"a"
	.align 8
	.long	1f - 0f
	.long	4f - 1f
	.long	5
0:
	.string	"GNU"
1:
	.align 8
	.long	0xc0000002
	.long	3f - 2f
2:
	.long	0x3
3:
	.align 8
4:
