	.file	"ctraced.c"
	.text
.Ltext0:
	.file 0 "/home/maragos/snippets/tracing_example_2" "ctraced.c"
	.local	mutex1
	.comm	mutex1,40,32
	.local	mutex2
	.comm	mutex2,40,32
	.local	mutex3
	.comm	mutex3,40,32
	.local	_do_exit
	.comm	_do_exit,4,4
	.section	.rodata
.LC0:
	.string	"%s %d\n"
	.text
	.globl	f4
	.type	f4, @function
f4:
.LFB6:
	.file 1 "ctraced.c"
	.loc 1 31 1
	.cfi_startproc
	endbr64
	pushq	%rbp
	.cfi_def_cfa_offset 16
	.cfi_offset 6, -16
	movq	%rsp, %rbp
	.cfi_def_cfa_register 6
	subq	$16, %rsp
	movl	%edi, -4(%rbp)
	movq	8(%rbp), %rax
	movq	%rax, %rsi
	leaq	f4(%rip), %rax
	movq	%rax, %rdi
	call	__cyg_profile_func_enter@PLT
	.loc 1 32 5
	movl	-4(%rbp), %eax
	movl	%eax, %edx
	leaq	__FUNCTION__.3(%rip), %rax
	movq	%rax, %rsi
	leaq	.LC0(%rip), %rax
	movq	%rax, %rdi
	movl	$0, %eax
	call	printf@PLT
	movq	8(%rbp), %rax
	movq	%rax, %rsi
	leaq	f4(%rip), %rax
	movq	%rax, %rdi
	call	__cyg_profile_func_exit@PLT
	.loc 1 33 1
	nop
	leave
	.cfi_def_cfa 7, 8
	ret
	.cfi_endproc
.LFE6:
	.size	f4, .-f4
	.type	f3, @function
f3:
.LFB7:
	.loc 1 37 1
	.cfi_startproc
	endbr64
	pushq	%rbp
	.cfi_def_cfa_offset 16
	.cfi_offset 6, -16
	movq	%rsp, %rbp
	.cfi_def_cfa_register 6
	pushq	%rbx
	subq	$24, %rsp
	.cfi_offset 3, -24
	movl	%edi, -20(%rbp)
	movq	8(%rbp), %rax
	movq	%rax, %rsi
	leaq	f3(%rip), %rax
	movq	%rax, %rdi
	call	__cyg_profile_func_enter@PLT
	.loc 1 38 5
	movl	-20(%rbp), %eax
	movl	%eax, %edx
	leaq	__FUNCTION__.1(%rip), %rax
	movq	%rax, %rsi
	leaq	.LC0(%rip), %rax
	movq	%rax, %rdi
	movl	$0, %eax
	call	printf@PLT
	.loc 1 39 5
	movl	-20(%rbp), %eax
	movl	%eax, %edi
	call	f4
	.loc 1 40 12
	movl	$80, %ebx
	movq	8(%rbp), %rax
	movq	%rax, %rsi
	leaq	f3(%rip), %rax
	movq	%rax, %rdi
	call	__cyg_profile_func_exit@PLT
	movl	%ebx, %eax
	.loc 1 41 1
	movq	-8(%rbp), %rbx
	leave
	.cfi_def_cfa 7, 8
	ret
	.cfi_endproc
.LFE7:
	.size	f3, .-f3
	.globl	f2
	.type	f2, @function
f2:
.LFB8:
	.loc 1 45 1
	.cfi_startproc
	endbr64
	pushq	%rbp
	.cfi_def_cfa_offset 16
	.cfi_offset 6, -16
	movq	%rsp, %rbp
	.cfi_def_cfa_register 6
	pushq	%rbx
	subq	$24, %rsp
	.cfi_offset 3, -24
	movl	%edi, -20(%rbp)
	movq	8(%rbp), %rax
	movq	%rax, %rsi
	leaq	f2(%rip), %rax
	movq	%rax, %rdi
	call	__cyg_profile_func_enter@PLT
	.loc 1 46 5
	movl	-20(%rbp), %eax
	movl	%eax, %edx
	leaq	__FUNCTION__.2(%rip), %rax
	movq	%rax, %rsi
	leaq	.LC0(%rip), %rax
	movq	%rax, %rdi
	movl	$0, %eax
	call	printf@PLT
	.loc 1 47 5
	movl	-20(%rbp), %eax
	addl	$70, %eax
	movl	%eax, %edi
	call	f3
	.loc 1 48 12
	movl	$70, %ebx
	movq	8(%rbp), %rax
	movq	%rax, %rsi
	leaq	f2(%rip), %rax
	movq	%rax, %rdi
	call	__cyg_profile_func_exit@PLT
	movl	%ebx, %eax
	.loc 1 49 1
	movq	-8(%rbp), %rbx
	leave
	.cfi_def_cfa 7, 8
	ret
	.cfi_endproc
.LFE8:
	.size	f2, .-f2
	.type	f1, @function
f1:
.LFB9:
	.loc 1 53 1
	.cfi_startproc
	endbr64
	pushq	%rbp
	.cfi_def_cfa_offset 16
	.cfi_offset 6, -16
	movq	%rsp, %rbp
	.cfi_def_cfa_register 6
	pushq	%rbx
	subq	$24, %rsp
	.cfi_offset 3, -24
	movl	%edi, -20(%rbp)
	movq	8(%rbp), %rax
	movq	%rax, %rsi
	leaq	f1(%rip), %rax
	movq	%rax, %rdi
	call	__cyg_profile_func_enter@PLT
	.loc 1 54 5
	movl	-20(%rbp), %eax
	movl	%eax, %edx
	leaq	__FUNCTION__.0(%rip), %rax
	movq	%rax, %rsi
	leaq	.LC0(%rip), %rax
	movq	%rax, %rdi
	movl	$0, %eax
	call	printf@PLT
	.loc 1 55 5
	movl	-20(%rbp), %eax
	addl	$60, %eax
	movl	%eax, %edi
	call	f2
	.loc 1 56 12
	movl	$60, %ebx
	movq	8(%rbp), %rax
	movq	%rax, %rsi
	leaq	f1(%rip), %rax
	movq	%rax, %rdi
	call	__cyg_profile_func_exit@PLT
	movl	%ebx, %eax
	.loc 1 57 1
	movq	-8(%rbp), %rbx
	leave
	.cfi_def_cfa 7, 8
	ret
	.cfi_endproc
.LFE9:
	.size	f1, .-f1
	.type	wrap_strerror_r, @function
wrap_strerror_r:
.LFB10:
	.loc 1 62 1
	.cfi_startproc
	endbr64
	pushq	%rbp
	.cfi_def_cfa_offset 16
	.cfi_offset 6, -16
	movq	%rsp, %rbp
	.cfi_def_cfa_register 6
	pushq	%rbx
	subq	$40, %rsp
	.cfi_offset 3, -24
	movl	%edi, -36(%rbp)
	movq	%rsi, -48(%rbp)
	movl	%edx, -40(%rbp)
	movq	8(%rbp), %rax
	movq	%rax, %rsi
	leaq	wrap_strerror_r(%rip), %rax
	movq	%rax, %rdi
	call	__cyg_profile_func_enter@PLT
	.loc 1 63 11
	movq	$0, -24(%rbp)
	.loc 1 65 5
	movl	-40(%rbp), %eax
	movslq	%eax, %rdx
	movq	-48(%rbp), %rax
	movl	$0, %esi
	movq	%rax, %rdi
	call	memset@PLT
	.loc 1 66 11
	movl	-40(%rbp), %eax
	movslq	%eax, %rdx
	movq	-48(%rbp), %rcx
	movl	-36(%rbp), %eax
	movq	%rcx, %rsi
	movl	%eax, %edi
	call	strerror_r@PLT
	movq	%rax, -24(%rbp)
	.loc 1 68 22
	cmpq	$0, -24(%rbp)
	je	.L9
	.loc 1 68 22 is_stmt 0 discriminator 1
	movq	-24(%rbp), %rbx
	jmp	.L10
.L9:
	.loc 1 68 22 discriminator 2
	movq	-48(%rbp), %rbx
.L10:
	movq	8(%rbp), %rax
	movq	%rax, %rsi
	leaq	wrap_strerror_r(%rip), %rax
	movq	%rax, %rdi
	call	__cyg_profile_func_exit@PLT
	.loc 1 68 22 discriminator 4
	movq	%rbx, %rax
	.loc 1 69 1 is_stmt 1 discriminator 4
	movq	-8(%rbp), %rbx
	leave
	.cfi_def_cfa 7, 8
	ret
	.cfi_endproc
.LFE10:
	.size	wrap_strerror_r, .-wrap_strerror_r
	.section	.rodata
	.align 8
.LC1:
	.string	"Hello World! It's me, thread #%d!\n"
.LC2:
	.string	"T#%d!\n"
.LC3:
	.string	"T#%d+M2 (%s)\n"
.LC4:
	.string	"T#%d+M1 (%s)\n"
.LC5:
	.string	"T#%d-M1 (%s)\n"
.LC6:
	.string	"T#%d-M2 (%s)\n"
	.text
	.globl	thread1
	.type	thread1, @function
thread1:
.LFB11:
	.loc 1 74 1
	.cfi_startproc
	endbr64
	pushq	%rbp
	.cfi_def_cfa_offset 16
	.cfi_offset 6, -16
	movq	%rsp, %rbp
	.cfi_def_cfa_register 6
	subq	$304, %rsp
	movq	%rdi, -296(%rbp)
	.loc 1 74 1
	movq	%fs:40, %rax
	movq	%rax, -8(%rbp)
	xorl	%eax, %eax
	movq	8(%rbp), %rax
	movq	%rax, %rsi
	leaq	thread1(%rip), %rax
	movq	%rax, %rdi
	call	__cyg_profile_func_enter@PLT
	.loc 1 75 9
	movq	-296(%rbp), %rax
	movl	(%rax), %eax
	movl	%eax, -280(%rbp)
	.loc 1 77 5
	movl	-280(%rbp), %eax
	movl	%eax, %esi
	leaq	.LC1(%rip), %rax
	movq	%rax, %rdi
	movl	$0, %eax
	call	printf@PLT
	.loc 1 79 11
	jmp	.L13
.L16:
.LBB2:
	.loc 1 80 14
	movq	$0, -272(%rbp)
	movq	$0, -264(%rbp)
	movq	$0, -256(%rbp)
	movq	$0, -248(%rbp)
	movq	$0, -240(%rbp)
	movq	$0, -232(%rbp)
	movq	$0, -224(%rbp)
	movq	$0, -216(%rbp)
	movq	$0, -208(%rbp)
	movq	$0, -200(%rbp)
	movq	$0, -192(%rbp)
	movq	$0, -184(%rbp)
	movq	$0, -176(%rbp)
	movq	$0, -168(%rbp)
	movq	$0, -160(%rbp)
	movq	$0, -152(%rbp)
	movq	$0, -144(%rbp)
	movq	$0, -136(%rbp)
	movq	$0, -128(%rbp)
	movq	$0, -120(%rbp)
	movq	$0, -112(%rbp)
	movq	$0, -104(%rbp)
	movq	$0, -96(%rbp)
	movq	$0, -88(%rbp)
	movq	$0, -80(%rbp)
	movq	$0, -72(%rbp)
	movq	$0, -64(%rbp)
	movq	$0, -56(%rbp)
	movq	$0, -48(%rbp)
	movq	$0, -40(%rbp)
	movq	$0, -32(%rbp)
	movq	$0, -24(%rbp)
	.loc 1 83 9
	movl	$1, %edi
	call	sleep@PLT
	.loc 1 84 9
	movl	-280(%rbp), %eax
	movl	%eax, %esi
	leaq	.LC2(%rip), %rax
	movq	%rax, %rdi
	movl	$0, %eax
	call	printf@PLT
	.loc 1 86 15
	leaq	mutex2(%rip), %rax
	movq	%rax, %rdi
	call	pthread_mutex_lock@PLT
	movl	%eax, -276(%rbp)
	.loc 1 87 12
	cmpl	$0, -276(%rbp)
	jne	.L13
	.loc 1 88 13
	leaq	-272(%rbp), %rcx
	movl	-276(%rbp), %eax
	movl	$255, %edx
	movq	%rcx, %rsi
	movl	%eax, %edi
	call	wrap_strerror_r
	movq	%rax, %rdx
	movl	-280(%rbp), %eax
	movl	%eax, %esi
	leaq	.LC3(%rip), %rax
	movq	%rax, %rdi
	movl	$0, %eax
	call	printf@PLT
	.loc 1 90 13
	movl	$2, %edi
	call	sleep@PLT
	.loc 1 92 16
	cmpl	$0, -276(%rbp)
	jne	.L15
	.loc 1 93 23
	leaq	mutex1(%rip), %rax
	movq	%rax, %rdi
	call	pthread_mutex_lock@PLT
	movl	%eax, -276(%rbp)
	.loc 1 94 17
	leaq	-272(%rbp), %rcx
	movl	-276(%rbp), %eax
	movl	$255, %edx
	movq	%rcx, %rsi
	movl	%eax, %edi
	call	wrap_strerror_r
	movq	%rax, %rdx
	movl	-280(%rbp), %eax
	movl	%eax, %esi
	leaq	.LC4(%rip), %rax
	movq	%rax, %rdi
	movl	$0, %eax
	call	printf@PLT
	.loc 1 96 17
	movl	$1, %edi
	call	sleep@PLT
	.loc 1 98 17
	movl	$1, %edi
	call	sleep@PLT
	.loc 1 99 17
	movl	-280(%rbp), %eax
	movl	%eax, %edi
	call	f1
	.loc 1 101 23
	leaq	mutex1(%rip), %rax
	movq	%rax, %rdi
	call	pthread_mutex_unlock@PLT
	movl	%eax, -276(%rbp)
	.loc 1 102 17
	leaq	-272(%rbp), %rcx
	movl	-276(%rbp), %eax
	movl	$255, %edx
	movq	%rcx, %rsi
	movl	%eax, %edi
	call	wrap_strerror_r
	movq	%rax, %rdx
	movl	-280(%rbp), %eax
	movl	%eax, %esi
	leaq	.LC5(%rip), %rax
	movq	%rax, %rdi
	movl	$0, %eax
	call	printf@PLT
	.loc 1 104 17
	movl	$1, %edi
	call	sleep@PLT
.L15:
	.loc 1 107 19
	leaq	mutex2(%rip), %rax
	movq	%rax, %rdi
	call	pthread_mutex_unlock@PLT
	movl	%eax, -276(%rbp)
	.loc 1 108 13
	leaq	-272(%rbp), %rcx
	movl	-276(%rbp), %eax
	movl	$255, %edx
	movq	%rcx, %rsi
	movl	%eax, %edi
	call	wrap_strerror_r
	movq	%rax, %rdx
	movl	-280(%rbp), %eax
	movl	%eax, %esi
	leaq	.LC6(%rip), %rax
	movq	%rax, %rdi
	movl	$0, %eax
	call	printf@PLT
.L13:
.LBE2:
	.loc 1 79 12
	movl	_do_exit(%rip), %eax
	testl	%eax, %eax
	je	.L16
	.loc 1 113 5
	movl	$0, %edi
	call	pthread_exit@PLT
	.cfi_endproc
.LFE11:
	.size	thread1, .-thread1
	.globl	thread2
	.type	thread2, @function
thread2:
.LFB12:
	.loc 1 118 1
	.cfi_startproc
	endbr64
	pushq	%rbp
	.cfi_def_cfa_offset 16
	.cfi_offset 6, -16
	movq	%rsp, %rbp
	.cfi_def_cfa_register 6
	subq	$32, %rsp
	movq	%rdi, -24(%rbp)
	movq	8(%rbp), %rax
	movq	%rax, %rsi
	leaq	thread2(%rip), %rax
	movq	%rax, %rdi
	call	__cyg_profile_func_enter@PLT
	.loc 1 119 9
	movq	-24(%rbp), %rax
	movl	(%rax), %eax
	movl	%eax, -4(%rbp)
	.loc 1 120 5
	movl	-4(%rbp), %eax
	movl	%eax, %esi
	leaq	.LC1(%rip), %rax
	movq	%rax, %rdi
	movl	$0, %eax
	call	printf@PLT
	.loc 1 122 11
	jmp	.L19
.L20:
	.loc 1 123 9
	movl	-4(%rbp), %eax
	movl	%eax, %esi
	leaq	.LC2(%rip), %rax
	movq	%rax, %rdi
	movl	$0, %eax
	call	printf@PLT
	.loc 1 124 9
	movl	$1, %edi
	call	sleep@PLT
	.loc 1 125 9
	movl	-4(%rbp), %eax
	movl	%eax, %edi
	call	f1
.L19:
	.loc 1 122 12
	movl	_do_exit(%rip), %eax
	testl	%eax, %eax
	je	.L20
	.loc 1 128 5
	movl	$0, %edi
	call	pthread_exit@PLT
	.cfi_endproc
.LFE12:
	.size	thread2, .-thread2
	.section	.rodata
.LC7:
	.string	"T#%d+M3=%d (%s)\n"
	.text
	.globl	thread3
	.type	thread3, @function
thread3:
.LFB13:
	.loc 1 133 1
	.cfi_startproc
	endbr64
	pushq	%rbp
	.cfi_def_cfa_offset 16
	.cfi_offset 6, -16
	movq	%rsp, %rbp
	.cfi_def_cfa_register 6
	subq	$304, %rsp
	movq	%rdi, -296(%rbp)
	.loc 1 133 1
	movq	%fs:40, %rax
	movq	%rax, -8(%rbp)
	xorl	%eax, %eax
	movq	8(%rbp), %rax
	movq	%rax, %rsi
	leaq	thread3(%rip), %rax
	movq	%rax, %rdi
	call	__cyg_profile_func_enter@PLT
	.loc 1 134 9
	movq	-296(%rbp), %rax
	movl	(%rax), %eax
	movl	%eax, -280(%rbp)
	.loc 1 135 5
	movl	-280(%rbp), %eax
	movl	%eax, %esi
	leaq	.LC1(%rip), %rax
	movq	%rax, %rdi
	movl	$0, %eax
	call	printf@PLT
	.loc 1 137 11
	jmp	.L22
.L23:
.LBB3:
	.loc 1 139 14
	movq	$0, -272(%rbp)
	movq	$0, -264(%rbp)
	movq	$0, -256(%rbp)
	movq	$0, -248(%rbp)
	movq	$0, -240(%rbp)
	movq	$0, -232(%rbp)
	movq	$0, -224(%rbp)
	movq	$0, -216(%rbp)
	movq	$0, -208(%rbp)
	movq	$0, -200(%rbp)
	movq	$0, -192(%rbp)
	movq	$0, -184(%rbp)
	movq	$0, -176(%rbp)
	movq	$0, -168(%rbp)
	movq	$0, -160(%rbp)
	movq	$0, -152(%rbp)
	movq	$0, -144(%rbp)
	movq	$0, -136(%rbp)
	movq	$0, -128(%rbp)
	movq	$0, -120(%rbp)
	movq	$0, -112(%rbp)
	movq	$0, -104(%rbp)
	movq	$0, -96(%rbp)
	movq	$0, -88(%rbp)
	movq	$0, -80(%rbp)
	movq	$0, -72(%rbp)
	movq	$0, -64(%rbp)
	movq	$0, -56(%rbp)
	movq	$0, -48(%rbp)
	movq	$0, -40(%rbp)
	movq	$0, -32(%rbp)
	movq	$0, -24(%rbp)
	.loc 1 141 9
	movl	$1, %edi
	call	sleep@PLT
	.loc 1 142 9
	movl	-280(%rbp), %eax
	movl	%eax, %esi
	leaq	.LC2(%rip), %rax
	movq	%rax, %rdi
	movl	$0, %eax
	call	printf@PLT
	.loc 1 144 15
	leaq	mutex3(%rip), %rax
	movq	%rax, %rdi
	call	pthread_mutex_trylock@PLT
	movl	%eax, -276(%rbp)
	.loc 1 145 9
	leaq	-272(%rbp), %rcx
	movl	-276(%rbp), %eax
	movl	$255, %edx
	movq	%rcx, %rsi
	movl	%eax, %edi
	call	wrap_strerror_r
	movq	%rax, %rcx
	movl	-276(%rbp), %edx
	movl	-280(%rbp), %eax
	movl	%eax, %esi
	leaq	.LC7(%rip), %rax
	movq	%rax, %rdi
	movl	$0, %eax
	call	printf@PLT
	.loc 1 147 9
	movl	$2, %edi
	call	sleep@PLT
	.loc 1 149 9
	movl	-280(%rbp), %eax
	movl	%eax, %edi
	call	f1
.L22:
.LBE3:
	.loc 1 137 12
	movl	_do_exit(%rip), %eax
	testl	%eax, %eax
	je	.L23
	.loc 1 152 5
	movl	$0, %edi
	call	pthread_exit@PLT
	.cfi_endproc
.LFE13:
	.size	thread3, .-thread3
	.type	sigexit, @function
sigexit:
.LFB14:
	.loc 1 158 1
	.cfi_startproc
	endbr64
	pushq	%rbp
	.cfi_def_cfa_offset 16
	.cfi_offset 6, -16
	movq	%rsp, %rbp
	.cfi_def_cfa_register 6
	subq	$16, %rsp
	movl	%edi, -4(%rbp)
	movq	8(%rbp), %rax
	movq	%rax, %rsi
	leaq	sigexit(%rip), %rax
	movq	%rax, %rdi
	call	__cyg_profile_func_enter@PLT
	.loc 1 159 14
	movl	$1, _do_exit(%rip)
	movq	8(%rbp), %rax
	movq	%rax, %rsi
	leaq	sigexit(%rip), %rax
	movq	%rax, %rdi
	call	__cyg_profile_func_exit@PLT
	.loc 1 160 1
	nop
	leave
	.cfi_def_cfa 7, 8
	ret
	.cfi_endproc
.LFE14:
	.size	sigexit, .-sigexit
	.type	set_signal, @function
set_signal:
.LFB15:
	.loc 1 164 1
	.cfi_startproc
	endbr64
	pushq	%rbp
	.cfi_def_cfa_offset 16
	.cfi_offset 6, -16
	movq	%rsp, %rbp
	.cfi_def_cfa_register 6
	subq	$176, %rsp
	movl	%edi, -164(%rbp)
	movq	%rsi, -176(%rbp)
	.loc 1 164 1
	movq	%fs:40, %rax
	movq	%rax, -8(%rbp)
	xorl	%eax, %eax
	movq	8(%rbp), %rax
	movq	%rax, %rsi
	leaq	set_signal(%rip), %rax
	movq	%rax, %rdi
	call	__cyg_profile_func_enter@PLT
	.loc 1 167 5
	leaq	-160(%rbp), %rax
	movl	$152, %edx
	movl	$0, %esi
	movq	%rax, %rdi
	call	memset@PLT
	.loc 1 168 18
	movq	-176(%rbp), %rax
	movq	%rax, -160(%rbp)
	.loc 1 169 5
	leaq	-160(%rbp), %rcx
	movl	-164(%rbp), %eax
	movl	$0, %edx
	movq	%rcx, %rsi
	movl	%eax, %edi
	call	sigaction@PLT
	movq	8(%rbp), %rax
	movq	%rax, %rsi
	leaq	set_signal(%rip), %rax
	movq	%rax, %rdi
	call	__cyg_profile_func_exit@PLT
	.loc 1 170 1
	nop
	movq	-8(%rbp), %rax
	subq	%fs:40, %rax
	je	.L27
	call	__stack_chk_fail@PLT
.L27:
	leave
	.cfi_def_cfa 7, 8
	ret
	.cfi_endproc
.LFE15:
	.size	set_signal, .-set_signal
	.section	.rodata
.LC8:
	.string	"%s: main(argc=%d)\n"
	.align 8
.LC9:
	.string	"Error: return code from pthread_create() is %d\n"
.LC10:
	.string	"%s: done.\n"
	.text
	.globl	main
	.type	main, @function
main:
.LFB16:
	.loc 1 175 1
	.cfi_startproc
	endbr64
	pushq	%rbp
	.cfi_def_cfa_offset 16
	.cfi_offset 6, -16
	movq	%rsp, %rbp
	.cfi_def_cfa_register 6
	pushq	%rbx
	subq	$120, %rsp
	.cfi_offset 3, -24
	movl	%edi, -116(%rbp)
	movq	%rsi, -128(%rbp)
	.loc 1 175 1
	movq	%fs:40, %rax
	movq	%rax, -24(%rbp)
	xorl	%eax, %eax
	movq	8(%rbp), %rax
	movq	%rax, %rsi
	leaq	main(%rip), %rax
	movq	%rax, %rdi
	call	__cyg_profile_func_enter@PLT
	.loc 1 179 15
	movq	$0, -80(%rbp)
	movq	$0, -72(%rbp)
	movq	$0, -64(%rbp)
	.loc 1 180 18
	leaq	thread1(%rip), %rax
	movq	%rax, -48(%rbp)
	leaq	thread2(%rip), %rax
	movq	%rax, -40(%rbp)
	leaq	thread3(%rip), %rax
	movq	%rax, -32(%rbp)
	.loc 1 181 6
	movl	$1, -92(%rbp)
	movl	$2, -88(%rbp)
	movl	$3, -84(%rbp)
	.loc 1 184 5
	leaq	sigexit(%rip), %rax
	movq	%rax, %rsi
	movl	$2, %edi
	call	set_signal
	.loc 1 185 5
	leaq	sigexit(%rip), %rax
	movq	%rax, %rsi
	movl	$3, %edi
	call	set_signal
	.loc 1 187 5
	movq	-128(%rbp), %rax
	movq	(%rax), %rax
	movl	-116(%rbp), %edx
	movq	%rax, %rsi
	leaq	.LC8(%rip), %rax
	movq	%rax, %rdi
	movl	$0, %eax
	call	printf@PLT
	.loc 1 189 11
	movl	$0, -100(%rbp)
	.loc 1 189 5
	jmp	.L29
.L31:
	.loc 1 190 65
	leaq	-92(%rbp), %rdx
	movl	-100(%rbp), %eax
	cltq
	salq	$2, %rax
	addq	%rax, %rdx
	.loc 1 190 14
	movl	-100(%rbp), %eax
	cltq
	movq	-48(%rbp,%rax,8), %rax
	leaq	-80(%rbp), %rsi
	movl	-100(%rbp), %ecx
	movslq	%ecx, %rcx
	salq	$3, %rcx
	leaq	(%rsi,%rcx), %rdi
	movq	%rdx, %rcx
	movq	%rax, %rdx
	movl	$0, %esi
	call	pthread_create@PLT
	movl	%eax, -96(%rbp)
	.loc 1 191 12
	cmpl	$0, -96(%rbp)
	je	.L30
	.loc 1 192 13
	movl	-96(%rbp), %eax
	movl	%eax, %esi
	leaq	.LC9(%rip), %rax
	movq	%rax, %rdi
	movl	$0, %eax
	call	printf@PLT
	.loc 1 193 13
	movl	$1, %edi
	call	exit@PLT
.L30:
	.loc 1 189 23 discriminator 2
	addl	$1, -100(%rbp)
.L29:
	.loc 1 189 16 discriminator 1
	cmpl	$2, -100(%rbp)
	jle	.L31
	.loc 1 197 11
	jmp	.L32
.L33:
	.loc 1 198 9
	movl	$1, %edi
	call	sleep@PLT
.L32:
	.loc 1 197 12
	movl	_do_exit(%rip), %eax
	testl	%eax, %eax
	je	.L33
	.loc 1 200 5
	movq	-128(%rbp), %rax
	movq	(%rax), %rax
	movq	%rax, %rsi
	leaq	.LC10(%rip), %rax
	movq	%rax, %rdi
	movl	$0, %eax
	call	printf@PLT
	.loc 1 201 11
	movl	$0, %ebx
	movq	8(%rbp), %rax
	movq	%rax, %rsi
	leaq	main(%rip), %rax
	movq	%rax, %rdi
	call	__cyg_profile_func_exit@PLT
	.loc 1 202 1
	movl	%ebx, %eax
	movq	-24(%rbp), %rdx
	subq	%fs:40, %rdx
	je	.L35
	call	__stack_chk_fail@PLT
.L35:
	movq	-8(%rbp), %rbx
	leave
	.cfi_def_cfa 7, 8
	ret
	.cfi_endproc
.LFE16:
	.size	main, .-main
	.section	.rodata
	.type	__FUNCTION__.3, @object
	.size	__FUNCTION__.3, 3
__FUNCTION__.3:
	.string	"f4"
	.type	__FUNCTION__.2, @object
	.size	__FUNCTION__.2, 3
__FUNCTION__.2:
	.string	"f2"
	.type	__FUNCTION__.1, @object
	.size	__FUNCTION__.1, 3
__FUNCTION__.1:
	.string	"f3"
	.type	__FUNCTION__.0, @object
	.size	__FUNCTION__.0, 3
__FUNCTION__.0:
	.string	"f1"
	.text
.Letext0:
	.file 2 "/usr/include/x86_64-linux-gnu/bits/types.h"
	.file 3 "/usr/lib/gcc/x86_64-linux-gnu/11/include/stddef.h"
	.file 4 "/usr/include/x86_64-linux-gnu/bits/types/__sigset_t.h"
	.file 5 "/usr/include/x86_64-linux-gnu/bits/thread-shared-types.h"
	.file 6 "/usr/include/x86_64-linux-gnu/bits/struct_mutex.h"
	.file 7 "/usr/include/x86_64-linux-gnu/bits/pthreadtypes.h"
	.file 8 "/usr/include/x86_64-linux-gnu/bits/types/__sigval_t.h"
	.file 9 "/usr/include/x86_64-linux-gnu/bits/types/siginfo_t.h"
	.file 10 "/usr/include/signal.h"
	.file 11 "/usr/include/x86_64-linux-gnu/bits/sigaction.h"
	.file 12 "/usr/include/stdlib.h"
	.file 13 "/usr/include/pthread.h"
	.file 14 "/usr/include/unistd.h"
	.file 15 "/usr/include/string.h"
	.file 16 "/usr/include/stdio.h"
	.section	.note.GNU-stack,"",@progbits
	.section	.note.gnu.property,"a"
	.align 8
	.long	1f - 0f
	.long	4f - 1f
	.long	5
0:
	.string	"GNU"
1:
	.align 8
	.long	0xc0000002
	.long	3f - 2f
2:
	.long	0x3
3:
	.align 8
4:
